EXPORTS
	Datenbank  DATA
	magus_class  DATA
	Programmoptionen  DATA
	_Z13EmptyInt_4TeXii 
	_Z13libmagus_initiPPKcPFvdE 
	_Z14libmagus_init0iPPKc 
	_Z14libmagus_init1PFvdE 
	_Z14List_to_VectorRKSt4listI13H_WaffeBesitzSaIS0_EE 
	_Z14List_to_VectorRKSt4listI29H_MidgardBasicElement_mutableSaIS0_EE 
	_Z14List_to_VectorSt4listI29H_MidgardBasicElement_mutableSaIS0_EERK10Abenteureri 
	_Z17add_plus_or_minusRSsi 
	_Z23spielleiter_export_saveRK10AbenteurerRKSsb 
	_Z2inISsEbRKT_S2_S2_ 
	_Z2NVIN6Wizard6estepsEEN8ManuProC11NameValue_sIT_EERKSsRKS4_ 
	_Z2NVIPcEN8ManuProC11NameValue_sIT_EERKSsRKS3_ 
	_Z2NVIPN15AbenteurerListe4ItemEEN8ManuProC11NameValue_sIT_EERKSsRKS5_ 
	_Z2NVIPN15AbenteurerListe7st_undoEEN8ManuProC11NameValue_sIT_EERKSsRKS5_ 
	_Z2NVISsEN8ManuProC11NameValue_sIT_EERKSsRKS2_ 
	_Z5dtos1d 
	_Z8rekursivRKSt4listI15AusruestungBaumSaIS0_EERdS5_ 
	_Z8xml_initN4SigC5Slot1IvdEER9Datenbank 
	_ZanN19MidgardBasicElement4EP_tES0_ 
	_ZeqPvRK10cH_Spezies 
	_ZeqPvRK16cH_Spezialgebiet 
	_ZeqPvRK8cH_Typen 
	_ZlsIN6Wizard6estepsEERSoS2_RKN8ManuProC11NameValue_sIT_EE 
	_ZlsIPcERSoS1_RKN8ManuProC11NameValue_sIT_EE 
	_ZlsIPN15AbenteurerListe4ItemEERSoS3_RKN8ManuProC11NameValue_sIT_EE 
	_ZlsIPN15AbenteurerListe7st_undoEERSoS3_RKN8ManuProC11NameValue_sIT_EE 
	_ZlsISsERSoS0_RKN8ManuProC11NameValue_sIT_EE 
	_ZN10Abenteurer10desteigernEj 
	_ZN10Abenteurer10neu_lernenER29H_MidgardBasicElement_mutablei 
	_ZN10Abenteurer12EP_aufwendenEN19MidgardBasicElement4EP_tEj 
	_ZN10Abenteurer12get_ab_re_zaEN14ResistenzUndCo5was_tE 
	_ZN10Abenteurer12get_ab_re_zaERK29H_MidgardBasicElement_mutable 
	_ZN10Abenteurer12get_ausdauerEi 
	_ZN10Abenteurer12move_elementERSt4listI29H_MidgardBasicElement_mutableSaIS1_EES4_RKS1_ 
	_ZN10Abenteurer12PP_aufwendenEjRK29H_MidgardBasicElement_mutable 
	_ZN10Abenteurer12setAngebFertEv 
	_ZN10Abenteurer12set_lernzeitEiRK29H_MidgardBasicElement_mutable 
	_ZN10Abenteurer12steigern_uspERi29H_MidgardBasicElement_mutableS0_ 
	_ZN10Abenteurer12steigern_uspERiN14ResistenzUndCo5was_tE 
	_ZN10Abenteurer14get_known_listEN19MidgardBasicElement4MBEEE 
	_ZN10Abenteurer14get_known_listERK29H_MidgardBasicElement_mutable 
	_ZN10Abenteurer16load_ausruestungEPK3TagP15AusruestungBaum 
	_ZN10Abenteurer16setAngebSinnFertEiRK29H_MidgardBasicElement_mutable 
	_ZN10Abenteurer17load_fertigkeitenEPK3TagS2_i 
	_ZN10Abenteurer17Steigertage2AlterEv 
	_ZN10Abenteurer17xml_import_streamERSi 
	_ZN10Abenteurer18move_neues_elementER29H_MidgardBasicElement_mutablePSt4listIS0_SaIS0_EE 
	_ZN10Abenteurer18remove_WaffenGrundEv 
	_ZN10Abenteurer19ReduzierenVerlernenER29H_MidgardBasicElement_mutableRb 
	_ZN10Abenteurer22eigenschaften_steigernEi 
	_ZN10Abenteurer22load_regionen_optionenEPK3Tagi 
	_ZN10Abenteurer22setStandardAusruestungEv 
	_ZN10Abenteurer24getAusruestung_as_parentERKSs 
	_ZN10Abenteurer27SpruchVonSpruchrolleGelerntERKSs 
	_ZN10Abenteurer5ladenERSi 
	_ZN10Abenteurer5resetEv 
	_ZN10Abenteurer6modifyENS_10modi_modusERK29H_MidgardBasicElement_mutableRKN19MidgardBasicElement9st_zusatzEi 
	_ZN10Abenteurer7getListEN19MidgardBasicElement4MBEEE 
	_ZN10Abenteurer8rekursivERSt4listI15AusruestungBaumSaIS1_EERKSs 
	_ZN10Abenteurer8steigereER29H_MidgardBasicElement_mutable 
	_ZN10Abenteurer8SteigernER29H_MidgardBasicElement_mutable 
	_ZN10Abenteurer8verlerneER29H_MidgardBasicElement_mutable 
	_ZN10Abenteurer9reduziereER29H_MidgardBasicElement_mutable 
	_ZN10AbenteureraSERKS_ 
	_ZN10AbenteurerC1ERKS_ 
	_ZN10AbenteurerC1Eb 
	_ZN10AbenteurerC2Eb 
	_ZN10AbenteurerD1Ev 
	_ZN10cH_Schrift4loadERKSsRK3Tag 
	_ZN10cH_Schrift5cacheE  DATA
	_ZN10cH_SchriftC1ERKSsb 
	_ZN10cH_SchriftC2ERKSsb 
	_ZN10cH_Spezies4loadERK3Tag 
	_ZN10cH_Spezies5cacheE  DATA
	_ZN10cH_SpeziesC1ERKSsb 
	_ZN10cH_SpeziesC2ERKSsb 
	_ZN10cH_Sprache4loadERK3TagRb 
	_ZN10cH_Sprache5cacheE  DATA
	_ZN10cH_SpracheC1ERKSsb 
	_ZN10cH_SpracheC2ERKSsb 
	_ZN10Fertigkeit14get_FertigkeitERK3Tag 
	_ZN10Fertigkeit4loadERK3Tag 
	_ZN10FertigkeitC1ERK3Tag 
	_ZN10FertigkeitC2ERK3Tag 
	_ZN10FertigkeitD0Ev 
	_ZN10FertigkeitD1Ev 
	_ZN10Grundwerte10resetSinneEv 
	_ZN10Grundwerte12setSinnCheckERKSsi 
	_ZN10Grundwerte12setStadtLandERKSs 
	_ZN10Grundwerte13constraint_awEi 
	_ZN10Grundwerte13constraint_gwEi 
	_ZN10Grundwerte13setGeschlechtERKSs 
	_ZN10Grundwerte13setGrad1WerteEv 
	_ZN10Grundwerte14Au_pA_wuerfelnEv 
	_ZN10Grundwerte14gw_wuerfeln_2xEv 
	_ZN10Grundwerte17abge_werte_setzenEv 
	_ZN10Grundwerte20wuerfeln_best_of_twoEv 
	_ZN10Grundwerte5resetEv 
	_ZN10Grundwerte5VhandE  DATA
	_ZN10Grundwerte6VstandE  DATA
	_ZN10Grundwerte7setSinnERKSsi 
	_ZN10GrundwerteC1Eb 
	_ZN10GrundwerteC2ERKS_ 
	_ZN10GrundwerteC2Eb 
	_ZN10GrundwerteD2Ev 
	_ZN10KiDo_Stile11ist_gelerntESs 
	_ZN10KiDo_Stile12ist_gemischtESs 
	_ZN10KiDo_Stile8ist_hartESs 
	_ZN10KiDo_Stile9ist_sanftESs 
	_ZN10KiDo_StileC1Ev 
	_ZN10KiDo_StileC2Ev 
	_ZN10LernListen10getSpeziesEb 
	_ZN10LernListen11getHerkunftERK10Abenteurer 
	_ZN10LernListen11getRuestungERK10Abenteurer 
	_ZN10LernListen12getMBEZusatzERK10AbenteurerRK29H_MidgardBasicElement_mutable 
	_ZN10LernListen12region_checkERK10AbenteurerRKSs 
	_ZN10LernListen13getLandZusatzEv 
	_ZN10LernListen14SpracheSchriftERK22cH_MidgardBasicElement 
	_ZN10LernListen15getWaffenBesitzERK10Abenteurer 
	_ZN10LernListen15getWaffenZusatzERKSt4listI29H_MidgardBasicElement_mutableSaIS1_EE 
	_ZN10LernListen15shorten_for_GFPERSt4listI29H_MidgardBasicElement_mutableSaIS1_EERK10Abenteureri 
	_ZN10LernListen16getBerufsVorteilERK29H_MidgardBasicElement_mutableRK15BerufsKategorieRK10Abenteurer 
	_ZN10LernListen16getSpezialgebietERK10Abenteurer 
	_ZN10LernListen17getSprachenZusatzERK29H_MidgardBasicElement_mutableRK10Abenteurerb 
	_ZN10LernListen17get_steigern_MBEmERK10AbenteurerN19MidgardBasicElement4MBEEE 
	_ZN10LernListen18getSchriftenZusatzERK29H_MidgardBasicElement_mutableRK10Abenteurer 
	_ZN10LernListen19getUeberlebenZusatzEv 
	_ZN10LernListen24get_steigern_ZauberlisteERK10Abenteurerbbbb 
	_ZN10LernListen28get_steigern_ZauberWerklisteERK10Abenteurerb 
	_ZN10LernListen7getMBEmERK10AbenteurerNS_4eMBEEiiSs 
	_ZN10LernListen8getBerufERK10Abenteurer 
	_ZN10LernListen8getTypenERK10Abenteurer 
	_ZN10LernListen8getTypenERK10cH_Spezies 
	_ZN10LernListen9nsc_checkEbb 
	_ZN10LernListen9nsc_checkERK10Abenteurerb 
	_ZN10Lernschema4loadERK3TagRKSs 
	_ZN10Lernschema8getIndexERKSt6vectorI8cH_TypenSaIS1_EERKSsS7_ 
	_ZN10Model_BaseC2Ev 
	_ZN10Preise_All4loadERSt4listI9cH_PreiseSaIS1_EERK3Tag 
	_ZN10RadioModel8callbackEPv 
	_ZN10RadioModelC1E9Model_refIbES1_ 
	_ZN10WaffeGrund14get_WaffeGrundERK3Tag 
	_ZN10WaffeGrund4loadERK3Tag 
	_ZN10WaffeGrundC1ERK3Tag 
	_ZN10WaffeGrundC2ERK3Tag 
	_ZN10WaffeGrundD0Ev 
	_ZN10WaffeGrundD1Ev 
	_ZN10Zauber_All4loadERSt4listI22cH_MidgardBasicElementSaIS1_EERK3Tag 
	_ZN10Zauberwerk14get_ZauberwerkERK3Tag 
	_ZN10Zauberwerk18getVoraussetzungenERK3Tag 
	_ZN10Zauberwerk22getVoraussetzungenFertERK3Tag 
	_ZN10Zauberwerk4loadERK3Tag 
	_ZN10ZauberwerkC1ERK3Tag 
	_ZN10ZauberwerkC2ERK3Tag 
	_ZN10ZauberwerkD0Ev 
	_ZN10ZauberwerkD1Ev 
	_ZN11AusruestungC1ESs 
	_ZN11cH_Prototyp4loadERK3Tag 
	_ZN11cH_Prototyp5cacheE  DATA
	_ZN11cH_PrototypC1ERKSsb 
	_ZN11cH_PrototypC2ERKSsb 
	_ZN11cH_Ruestung4loadERK3TagRb 
	_ZN11cH_Ruestung5cacheE  DATA
	_ZN11cH_RuestungC1ERKSsb 
	_ZN11cH_RuestungC2ERKSsb 
	_ZN11Laender_All4loadERSt4listI7cH_LandSaIS1_EERKSsRK3Tag 
	_ZN11Laender_All4loadERSt6vectorI7cH_LandSaIS1_EERKSsRK3Tag 
	_ZN11magus_paths10append_dirERKSs 
	_ZN11magus_paths11prepend_dirERKSs 
	_ZN11magus_paths14register_magusERKSs 
	_ZN11magus_paths14register_magusEv 
	_ZN11magus_paths17BinaryVerzeichnisEv 
	_ZN11magus_paths17magus_verzeichnisE  DATA
	_ZN11magus_paths4initERKSsS1_ 
	_ZN11magus_paths5argv0E  DATA
	_ZN11magus_paths5pathsE  DATA
	_ZN11magus_paths9with_pathERKSsbb 
	_ZN11Prozente1003addERKN19MidgardBasicElement4MBEEEi 
	_ZN11Prozente1003setERKN19MidgardBasicElement4MBEEEi 
	_ZN11Prozente1004setSERKN19MidgardBasicElement4MBEEEi 
	_ZN11Prozente1006VsummeEv 
	_ZN11Prozente1008check100Ev 
	_ZN11Prozente1008set_mageEb 
	_ZN11Prozente100C1Ev 
	_ZN11Prozente100C2Ev 
	_ZN11Spezies_All4loadERSt4listI10cH_SpeziesSaIS1_EERK3Tag 
	_ZN11Spezies_All4loadERSt6vectorI10cH_SpeziesSaIS1_EERK3Tag 
	_ZN11VAbenteurer12delete_emptyEv 
	_ZN11VAbenteurer12erase_silentESt14_List_iteratorIN15AbenteurerListe4ItemEE 
	_ZN11VAbenteurer13unsaved_existEv 
	_ZN11VAbenteurer16push_back_silentEv 
	_ZN11VAbenteurer4loadERKSs 
	_ZN11VAbenteurer4loadERSi 
	_ZN11VAbenteurer5eraseESt14_List_iteratorIN15AbenteurerListe4ItemEE 
	_ZN11VAbenteurer9push_backEv 
	_ZN11VAbenteurerC1Ev 
	_ZN11VAbenteurerC2Ev 
	_ZN11WaffeBesitzD0Ev 
	_ZN11WaffeBesitzD1Ev 
	_ZN12cH_Prototyp24loadERK3Tag 
	_ZN12cH_Prototyp25cacheE  DATA
	_ZN12cH_Prototyp2C1ERKSsb 
	_ZN12cH_Prototyp2C2ERKSsb 
	_ZN12Grad_anstieg16fill_kosten_mapsEv 
	_ZN12Grad_anstieg4loadERK3Tag 
	_ZN12Grad_anstiegC1Ev 
	_ZN12PreiseNewMod4loadERK3Tag 
	_ZN12PreiseNewMod6getPNMERK3Tag 
	_ZN12PreiseNewModC1ERK3Tag 
	_ZN12PreiseNewModC2ERK3Tag 
	_ZN12PreiseNewModD0Ev 
	_ZN12PreiseNewModD1Ev 
	_ZN12Prototyp_All4loadERSt4listI11cH_PrototypSaIS1_EERK3Tag 
	_ZN12Regionen_All16getRegionfromAbkERKSt6vectorI9cH_RegionSaIS1_EERKSs 
	_ZN12Regionen_All4loadERSt6vectorI9cH_RegionSaIS1_EERK3TagRKSs 
	_ZN12Ruestung_All4loadERSt4listI11cH_RuestungSaIS1_EERK3Tag 
	_ZN12Ruestung_All4loadERSt6vectorI11cH_RuestungSaIS1_EERK3Tag 
	_ZN12Sprachen_All4loadERSt4listI22cH_MidgardBasicElementSaIS1_EERK3Tag 
	_ZN13cH_Fertigkeit4loadERK3TagRb 
	_ZN13cH_Fertigkeit5cacheE  DATA
	_ZN13cH_FertigkeitC1ERKSsb 
	_ZN13cH_FertigkeitC2ERKSsb 
	_ZN13cH_WaffeGrund4loadERK3TagRb 
	_ZN13cH_WaffeGrund5cacheE  DATA
	_ZN13cH_WaffeGrundC1ERKSsb 
	_ZN13cH_WaffeGrundC2ERKSsb 
	_ZN13cH_Zauberwerk4loadERK3TagRb 
	_ZN13cH_Zauberwerk5cacheE  DATA
	_ZN13cH_ZauberwerkC1ERKSsS1_S1_b 
	_ZN13cH_ZauberwerkC2ERKSsS1_S1_b 
	_ZN13LaTeX_drucken10AusdruckenERK10Abenteurerb 
	_ZN13LaTeX_drucken10AusdruckenEv 
	_ZN13LaTeX_drucken10LaTeX_kidoERK10AbenteurerRSo 
	_ZN13LaTeX_drucken10pdf_viewerERKSsb 
	_ZN13LaTeX_drucken12LaTeX_footerERSo 
	_ZN13LaTeX_drucken12LaTeX_headerERK10AbenteurerRSobb 
	_ZN13LaTeX_drucken12LaTeX_stringEi 
	_ZN13LaTeX_drucken12LaTeX_zauberERK10AbenteurerRSo 
	_ZN13LaTeX_drucken13list_for_eachERSoRKSt4listI29H_MidgardBasicElement_mutableSaIS2_EERKiRKSs 
	_ZN13LaTeX_drucken14LaTeX_scalemagERKSsjS1_S1_S1_ 
	_ZN13LaTeX_drucken14write_sprachenERSoRKSt6vectorI19Sprache_und_SchriftSaIS2_EEb 
	_ZN13LaTeX_drucken15LaTeX_BildboxenERSoRKSsd 
	_ZN13LaTeX_drucken15LaTeX_kido_mainERK10AbenteurerRSo 
	_ZN13LaTeX_drucken15LaTeX_kopfzeileERK10AbenteurerRSobb 
	_ZN13LaTeX_drucken15write_long_listERK10AbenteurerRSoRKSt6vectorI19Sprache_und_SchriftSaIS5_EERKSt4listI29H_MidgardBasicElement_mutableSaISB_EERKSA_I13H_WaffeBesitzSaISG_EE 
	_ZN13LaTeX_drucken16LaTeX_header_docERK10AbenteurerRSobb 
	_ZN13LaTeX_drucken16LaTeX_newsaveboxERK10AbenteurerRSo 
	_ZN13LaTeX_drucken16SpielleiterbogenER11VAbenteurer 
	_ZN13LaTeX_drucken16write_grundwerteERK10AbenteurerRSob 
	_ZN13LaTeX_drucken17ausruestung_druckERSobRKSt4listI15AusruestungBaumSaIS2_EEi 
	_ZN13LaTeX_drucken17LaTeX_zauber_mainERK10AbenteurerRSo 
	_ZN13LaTeX_drucken17write_universelleERK10AbenteurerRSo 
	_ZN13LaTeX_drucken18get_latex_filenameERK10AbenteurerNS_15LaTeX_FilenamesE 
	_ZN13LaTeX_drucken18get_latex_pathnameENS_15LaTeX_PathnamesE 
	_ZN13LaTeX_drucken18LaTeX_write_valuesERK10AbenteurerRSoRKSs 
	_ZN13LaTeX_drucken18LaTeX_zaubermittelERK10AbenteurerRSo 
	_ZN13LaTeX_drucken18write_fertigkeitenERK10AbenteurerRSoRKSt4listI29H_MidgardBasicElement_mutableSaIS5_EEb 
	_ZN13LaTeX_drucken18write_waffenbesitzERK10AbenteurerRSoRKSt4listI13H_WaffeBesitzSaIS5_EEb 
	_ZN13LaTeX_drucken20on_ausruestung_druckERK10Abenteurerb 
	_ZN13LaTeX_drucken24LaTeX_write_empty_valuesERSoRKSs 
	_ZN13LaTeX_drucken26latex_beschreibung_druckenERK10Abenteurer 
	_ZN13LaTeX_drucken4lineERK11VAbenteurerRSoRKNS_5ewhatE 
	_ZN13LaTeX_drucken8for_eachERK11VAbenteurerRSoRKNS_5ewhatE 
	_ZN13orecodestreamD0Ev 
	_ZN13orecodestreamD1Ev 
	_ZN13Prototyp2_All4loadERSt4listI12cH_Prototyp2SaIS1_EERK3Tag 
	_ZN13Schriften_All4loadERSt4listI22cH_MidgardBasicElementSaIS1_EERK3Tag 
	_ZN13SpezialgebietC1ERK3Tag 
	_ZN13SpezialgebietC2ERK3Tag 
	_ZN13SpezialgebietD0Ev 
	_ZN13SpezialgebietD1Ev 
	_ZN14Magus_Optionen12load_optionsERKSs 
	_ZN14Magus_Optionen12save_optionsERKSs 
	_ZN14Magus_Optionen12setpdfViewerESsb 
	_ZN14Magus_Optionen12st_base_boolINS_9IconIndexEEC1ERKS1_RKSsb 
	_ZN14Magus_Optionen12Strings_initEv 
	_ZN14Magus_Optionen13OptionenCheckENS_18OptionenCheckIndexE 
	_ZN14Magus_Optionen13Optionen_initEv 
	_ZN14Magus_Optionen14setOptionCheckESsbi 
	_ZN14Magus_Optionen16st_OptionenCheckC1ENS_18OptionenCheckIndexERKSsbi 
	_ZN14Magus_Optionen17setWindowPositionERKSsiijj 
	_ZN14Magus_Optionen19setStandardRegionenERK10Abenteurer 
	_ZN14Magus_Optionen20global_settings_loadEiRKSsS1_ 
	_ZN14Magus_Optionen20global_settings_saveEiRKSsS1_S1_ 
	_ZN14Magus_Optionen4initEv 
	_ZN14Magus_Optionen7setIconESsb 
	_ZN14Magus_Optionen7setOberESsb 
	_ZN14Magus_Optionen7st_OberC1ENS_9OberIndexERKSsbb 
	_ZN14Magus_Optionen8init_allEv 
	_ZN14Magus_Optionen9getStringENS_11StringIndexE 
	_ZN14Magus_Optionen9IconCheckENS_9IconIndexE 
	_ZN14Magus_Optionen9Icon_initEv 
	_ZN14Magus_Optionen9OberCheckENS_9OberIndexE 
	_ZN14Magus_Optionen9Ober_initEv 
	_ZN14Magus_Optionen9setStringENS_11StringIndexESs 
	_ZN14Magus_Optionen9setStringESsSs 
	_ZN14Magus_OptionenC1Ev 
	_ZN14Magus_OptionenC2Ev 
	_ZN14ResistenzUndCo6AbwehrE  DATA
	_ZN14ResistenzUndCo6getMBEENS_5was_tE 
	_ZN14ResistenzUndCo7ZaubernE  DATA
	_ZN14ResistenzUndCo8AusdauerE  DATA
	_ZN14ResistenzUndCo8What_strENS_5was_tE 
	_ZN14ResistenzUndCo9ResistenzE  DATA
	_ZN14ResistenzUndCoC1ENS_5was_tE 
	_ZN14ResistenzUndCoD0Ev 
	_ZN14ResistenzUndCoD1Ev 
	_ZN14WaffeGrund_All4loadERSt4listI22cH_MidgardBasicElementSaIS1_EERK3Tag 
	_ZN14Zauberwerk_All4loadERSt4listI22cH_MidgardBasicElementSaIS1_EERK3Tag 
	_ZN15AbenteurerListe4Item10begin_undoEv 
	_ZN15AbenteurerListe4Item11cancel_undoEv 
	_ZN15AbenteurerListe4Item12divert_proxyEv 
	_ZN15AbenteurerListe4Item4initEv 
	_ZN15AbenteurerListe4Item7setUndoEN9__gnu_cxx17__normal_iteratorIPKNS_7st_undoESt6vectorIS3_SaIS3_EEEE 
	_ZN15AbenteurerListe4Item8undosaveERKSs 
	_ZN15AbenteurerListe4Item9name_undoERKSs 
	_ZN15AbenteurerListe4ItemC1ERK10Abenteurerb 
	_ZN15AbenteurerListe4ItemC1ERKS0_ 
	_ZN15AbenteurerListe4ItemC2ERK10Abenteurerb 
	_ZN15AbenteurerListe4ItemC2ERKS0_ 
	_ZN15AbenteurerListe7st_undoC1ERKS0_ 
	_ZN15AusruestungBaum9push_backERK11Ausruestung 
	_ZN15AusruestungBaumC1ERKS_ 
	_ZN15BerufsKategorie8wuerfelnEi 
	_ZN15cH_PreiseNewMod4loadERK3TagRb 
	_ZN15cH_PreiseNewMod5cacheE  DATA
	_ZN15cH_PreiseNewModC1ERKSsb 
	_ZN15cH_PreiseNewModC2ERKSsb 
	_ZN15zufall_steigern10GFPvonGradEj 
	_ZN15zufall_steigern8steigernER10Abenteurerj 
	_ZN16cH_Spezialgebiet4loadERK3Tag 
	_ZN16cH_Spezialgebiet5cacheE  DATA
	_ZN16cH_Spezialgebiet9is_cachedESs 
	_ZN16cH_SpezialgebietC1ERKSs 
	_ZN16cH_SpezialgebietC2ERKSs 
	_ZN16Fertigkeiten_All4loadERSt4listI22cH_MidgardBasicElementSaIS1_EERK3Tag 
	_ZN16Fertigkeiten_AllC1Ev 
	_ZN16Fertigkeiten_AllC2Ev 
	_ZN16PreiseNewMod_All4loadERSt6vectorI15cH_PreiseNewModSaIS1_EERK3Tag 
	_ZN16VAbentModelProxy10disconnectEv 
	_ZN16VAbentModelProxy6divertERN15AbenteurerListe4ItemE 
	_ZN16VAbentModelProxy6divertERN15AbenteurerListe7st_undoE 
	_ZN16VAbentModelProxy6divertEv 
	_ZN16VAbentModelProxyC1Ev 
	_ZN16VAbentModelProxyD1Ev 
	_ZN16VAbentModelProxyD2Ev 
	_ZN17AbenteurerAuswahl12divert_proxyEv 
	_ZN17AbenteurerAuswahl13setAbenteurerERKSt14_List_iteratorIN15AbenteurerListe4ItemEE 
	_ZN17AbenteurerAuswahl14actualIteratorEv 
	_ZN17AbenteurerAuswahl19LocalUndoRememberer6finishERKSs 
	_ZN17AbenteurerAuswahl19LocalUndoRemembererC1ERKSt14_List_iteratorIN15AbenteurerListe4ItemEE 
	_ZN17AbenteurerAuswahl19LocalUndoRemembererC1ERS_ 
	_ZN17AbenteurerAuswahl19LocalUndoRemembererC2ERKSt14_List_iteratorIN15AbenteurerListe4ItemEE 
	_ZN17AbenteurerAuswahl19LocalUndoRemembererC2ERS_ 
	_ZN17AbenteurerAuswahl19LocalUndoRemembererD1Ev 
	_ZN17AbenteurerAuswahl19LocalUndoRemembererD2Ev 
	_ZN17AbenteurerAuswahl5CharsE  DATA
	_ZN17AbenteurerAuswahlC1Ev 
	_ZN17AbenteurerAuswahlC2Ev 
	_ZN17Spezialgebiet_All4loadERSt6vectorI16cH_SpezialgebietSaIS1_EERK3Tag 
	_ZN19MidgardBasicElement11EP_steigernERKSs 
	_ZN19MidgardBasicElement11EP_steigernERKSsNS_4EP_tE 
	_ZN19MidgardBasicElement11get_map_typERK3Tag 
	_ZN19MidgardBasicElement11get_map_typEv 
	_ZN19MidgardBasicElement13verwendbareEPE  DATA
	_ZN19MidgardBasicElement16EP_steigern_loadERK3Tag 
	_ZN19MidgardBasicElement16saveElementlisteER3TagRKSt4listI29H_MidgardBasicElement_mutableSaIS3_EERK10GrundwerteRKSt6vectorI8cH_TypenSaISC_EE 
	_ZN19MidgardBasicElement20load_steigern_kostenERK3Tag 
	_ZN19MidgardBasicElement23get_Steigern_Kosten_mapERK3Tag 
	_ZN19MidgardBasicElement23get_Steigern_Kosten_mapEv 
	_ZN19MidgardBasicElement24sonstige_steigern_kostenE  DATA
	_ZN19MidgardBasicElement34waffen_steigern_nach_schwierigkeitE  DATA
	_ZN19MidgardBasicElement39load_waffen_steigern_nach_schwierigkeitERK3Tag 
	_ZN19MidgardBasicElement9st_zusatzD1Ev 
	_ZN19MidgardBasicElementC2ERKSs 
	_ZN19MidgardBasicElementD0Ev 
	_ZN19MidgardBasicElementD1Ev 
	_ZN19Sprache_und_Schrift21ungelernte_ist_besserERSt6vectorIS_SaIS_EERKSsi 
	_ZN19Sprache_und_SchriftD1Ev 
	_ZN20AbenteurerLernpunkte13geld_wuerfelnER10Abenteurer 
	_ZN20AbenteurerLernpunkte15InfoAusruestungERKSsS1_ii 
	_ZN20AbenteurerLernpunkte16beruf_gewuerfeltER10Abenteureri 
	_ZN20AbenteurerLernpunkte18ausruestung_setzenER10Abenteurer 
	_ZN20AbenteurerLernpunkte19ruestung_auswaehlenER10Abenteureri 
	_ZN20AbenteurerLernpunkte20AngebFert_gewuerfeltER10Abenteureri 
	_ZN20AbenteurerLernpunkte24lernschema_geld_wuerfelnER10AbenteurerRKSt6vectorIiSaIiEE 
	_ZN20AbenteurerLernpunkte26setFertigkeitenAusruestungER10Abenteurer 
	_ZN21Fertigkeit_angeborene14get_FertigkeitERK3Tag 
	_ZN21Fertigkeit_angeboreneC1ERK3Tag 
	_ZN21Fertigkeit_angeboreneC2ERK3Tag 
	_ZN21Fertigkeit_angeboreneD0Ev 
	_ZN21Fertigkeit_angeboreneD1Ev 
	_ZN24cH_Fertigkeit_angeborene4loadERK3Tag 
	_ZN24cH_Fertigkeit_angeborene5cacheE  DATA
	_ZN24cH_Fertigkeit_angeboreneC1ERKSsb 
	_ZN24cH_Fertigkeit_angeboreneC2ERKSsb 
	_ZN27Fertigkeiten_angeborene_All4loadERSt4listI22cH_MidgardBasicElementSaIS1_EERK3Tag 
	_ZN27Grund_Standard_Ausnahme_MBE8check100Ev 
	_ZN27MidgardBasicElement_mutableD0Ev 
	_ZN27MidgardBasicElement_mutableD1Ev 
	_ZN29H_MidgardBasicElement_mutableC1ERK22cH_MidgardBasicElement 
	_ZN3TagC1ERKS_ 
	_ZN3TagC1ERKSsS1_ 
	_ZN3TeX10string2TeXERKSsRKNS_11StringFlagsE 
	_ZN3TeX6FooterERSo 
	_ZN3TeX6HeaderERSoNS_11HeaderFlagsE 
	_ZN4KiDo11maxkidostilERKSt4listI29H_MidgardBasicElement_mutableSaIS1_EE 
	_ZN4KiDo20get_erfolgswert_kidoERKSt4listI29H_MidgardBasicElement_mutableSaIS1_EE 
	_ZN4KiDo8get_KiDoERK3Tag 
	_ZN4KiDoC1ERK3Tag 
	_ZN4KiDoC2ERK3Tag 
	_ZN4KiDoD0Ev 
	_ZN4KiDoD1Ev 
	_ZN4Land11ist_bekanntESsRKSt6vectorI7cH_LandSaIS1_EE 
	_ZN4LandC1ERKSsRK3Tag 
	_ZN4LandC2ERKSsRK3Tag 
	_ZN4LandD0Ev 
	_ZN4LandD1Ev 
	_ZN5Beruf16BerufsfertigkeitER10AbenteurerNS_10st_vorteilE 
	_ZN5Beruf4loadERK3Tag 
	_ZN5BerufC1ERK3Tag 
	_ZN5BerufC2ERK3Tag 
	_ZN5BerufD0Ev 
	_ZN5BerufD1Ev 
	_ZN5Sinne9get_SinneEv 
	_ZN5SinneC1ERKSs 
	_ZN5SinneC2ERKSs 
	_ZN5SinneD0Ev 
	_ZN5SinneD1Ev 
	_ZN5Typen17get_Typ_from_longERSs 
	_ZN5Typen6getTypERKSs 
	_ZN5TypenC1ERK3Tag 
	_ZN5TypenC2ERK3Tag 
	_ZN5TypenD0Ev 
	_ZN5TypenD1Ev 
	_ZN5Waffe15setSpezialWaffeERKSsRSt4listI29H_MidgardBasicElement_mutableSaIS3_EE 
	_ZN5Waffe16Waffe_from_AliasE  DATA
	_ZN5Waffe18getAllgemeinwissenERKSt4listI22cH_MidgardBasicElementSaIS1_EE 
	_ZN5Waffe19WaffeVonBezeichnungERKSs 
	_ZN5Waffe22get_VerteidigungswaffeEiRKSt4listI29H_MidgardBasicElement_mutableSaIS1_EERKS0_I13H_WaffeBesitzSaIS6_EERK10Abenteurer 
	_ZN5Waffe4loadERK3Tag 
	_ZN5Waffe9get_AliasERK3Tag 
	_ZN5Waffe9get_WaffeERK3Tag 
	_ZN5WaffeC1ERK3Tag 
	_ZN5WaffeC2ERK3Tag 
	_ZN5WaffeD0Ev 
	_ZN5WaffeD1Ev 
	_ZN6Preise10get_PreiseERK3Tag 
	_ZN6Preise11saveArtikelERKSsS1_S1_S1_RKdS1_S3_S1_S1_ 
	_ZN6Preise4loadERK3Tag 
	_ZN6PreiseC1ERK3Tag 
	_ZN6PreiseC1ERKSsS1_RK3Tag 
	_ZN6PreiseC2ERK3Tag 
	_ZN6PreiseC2ERKSsS1_RK3Tag 
	_ZN6PreiseD0Ev 
	_ZN6PreiseD1Ev 
	_ZN6Random7integerEii 
	_ZN6RegionC1ERK3TagRKSs 
	_ZN6RegionC2ERK3TagRKSs 
	_ZN6RegionD0Ev 
	_ZN6RegionD1Ev 
	_ZN6WinLux12active_tildeE  DATA
	_ZN6WinLux12normal_tildeE  DATA
	_ZN6WinLux13CreateProcessERKSs 
	_ZN6WinLux16recodePathForTeXESs 
	_ZN6Wizard16skip_if_possibleERK10Abenteurer 
	_ZN6Wizard3setENS_6estepsE 
	_ZN6Wizard3setENS_6estepsERK10Abenteurer 
	_ZN6Wizard4doneENS_6estepsERK10Abenteurer 
	_ZN6Wizard8can_skipERK10Abenteurer 
	_ZN6Wizard9next_stepERK10Abenteurer 
	_ZN6Wizard9next_stepEv 
	_ZN6WizardC1Ev 
	_ZN6WizardC2Ev 
	_ZN6Zauber10get_ZauberERK3Tag 
	_ZN6Zauber4loadERK3Tag 
	_ZN6ZauberC1ERK3Tag 
	_ZN6ZauberC2ERK3Tag 
	_ZN6ZauberD0Ev 
	_ZN6ZauberD1Ev 
	_ZN6Zufall10LernschemaEv 
	_ZN6Zufall12setAngebFertEv 
	_ZN6Zufall13getLernlistenEv 
	_ZN6Zufall15setSpezialwaffeEv 
	_ZN6Zufall15setWaffenBesitzEv 
	_ZN6Zufall16knows_everythingERKSt4listI29H_MidgardBasicElement_mutableSaIS1_EES5_ 
	_ZN6Zufall16setMutterspracheEv 
	_ZN6Zufall16setSpezialgebietEv 
	_ZN6Zufall19Lernpunkte_wuerfelnER10LernpunkteR10Abenteurer 
	_ZN6Zufall20Lernpunkte_verteilenENS_6eFAUWZERK10LernpunkteRKNS_5st_LLE 
	_ZN6Zufall21WaffenBesitz_wuerfelnERK10Abenteureri 
	_ZN6Zufall4TeilE7bitmaskINS_14B_VORGABE_BITSEERK10Abenteurer 
	_ZN6Zufall4VollEv 
	_ZN6Zufall8setBerufEv 
	_ZN6ZufallC1ER10Abenteurer 
	_ZN6ZufallC2ER10Abenteurer 
	_ZN7Ausgabe11setLogLevelENS_5LevelE 
	_ZN7Ausgabe3setEPFvNS_5LevelERKSsE 
	_ZN7AusgabeC1ENS_5LevelERK8NotFound 
	_ZN7AusgabeC1ENS_5LevelERKSs 
	_ZN7AusgabeC2ENS_5LevelERK8NotFound 
	_ZN7AusgabeC2ENS_5LevelERKSs 
	_ZN7cH_KiDo4loadERK3TagRb 
	_ZN7cH_KiDo5cacheE  DATA
	_ZN7cH_KiDoC1ERKSsb 
	_ZN7cH_KiDoC2ERKSsb 
	_ZN7cH_Land4loadERKSsRK3Tag 
	_ZN7cH_Land5cacheE  DATA
	_ZN7cH_LandC1ERKSsb 
	_ZN7cH_LandC2ERKSsb 
	_ZN7MagusKI11VerteileGFPEiRK11Prozente100RK27Grund_Standard_Ausnahme_MBE 
	_ZN7MagusKI11VerteileGFPEiRK11Prozente100RKSt6vectorI12cH_Prototyp2SaIS4_EE 
	_ZN7MagusKI12KI_GSA_ListeERKSt4listI29H_MidgardBasicElement_mutableSaIS1_EE 
	_ZN7MagusKI16allowed_for_gradERK29H_MidgardBasicElement_mutableNS_3eSLE 
	_ZN7MagusKI19KI_Prototypen_ListeEN19MidgardBasicElement4MBEEERKSt4listI29H_MidgardBasicElement_mutableSaIS3_EEb 
	_ZN7MagusKI21teste_auf_gradanstiegEv 
	_ZN7MagusKI8SteigernERiN19MidgardBasicElement4MBEEE 
	_ZN7MagusKI8VerteileEi 
	_ZN7MagusKI9NeuLernenERiN19MidgardBasicElement4MBEEE 
	_ZN7MagusKIC1ER10Abenteurer 
	_ZN7MagusKIC2ER10Abenteurer 
	_ZN7reg_key10get_stringEPKcPcjS1_ 
	_ZN7reg_key10set_stringEPKcS1_ 
	_ZN7reg_key4killEPKc 
	_ZN7reg_key7get_intEPKci 
	_ZN7reg_key7get_keyEv 
	_ZN7reg_key7set_intEPKci 
	_ZN7reg_key9build_regEP6HKEY__mPc 
	_ZN7reg_key9killvalueEPKc 
	_ZN7reg_keyC1EP6HKEY__mz 
	_ZN7reg_keyC2EP6HKEY__mz 
	_ZN7reg_keyD1Ev 
	_ZN7reg_keyD2Ev 
	_ZN7Schrift11get_SchriftERK3Tag 
	_ZN7SchriftC1ERKSsRK3Tag 
	_ZN7SchriftC2ERKSsRK3Tag 
	_ZN7SchriftD0Ev 
	_ZN7SchriftD1Ev 
	_ZN7Spezies10getSpeziesESs 
	_ZN7Spezies21get_Spezies_from_longERSs 
	_ZN7SpeziesC1ERK3Tag 
	_ZN7SpeziesC2ERK3Tag 
	_ZN7SpeziesD0Ev 
	_ZN7SpeziesD1Ev 
	_ZN7Sprache11get_SpracheERK3Tag 
	_ZN7Sprache20getVerwandteSprachenERKSt4listI29H_MidgardBasicElement_mutableSaIS1_EERKS0_I22cH_MidgardBasicElementSaIS6_EE 
	_ZN7Sprache22cleanVerwandteSprachenESt4listI29H_MidgardBasicElement_mutableSaIS1_EE 
	_ZN7Sprache35setErfolgswertMutterGastlandspracheER29H_MidgardBasicElement_mutableSsii 
	_ZN7SpracheC1ERK3Tag 
	_ZN7SpracheC2ERK3Tag 
	_ZN7SpracheD0Ev 
	_ZN7SpracheD1Ev 
	_ZN8cH_Beruf4loadERK3TagRb 
	_ZN8cH_Beruf5cacheE  DATA
	_ZN8cH_BerufC1ERKSsb 
	_ZN8cH_BerufC2ERKSsb 
	_ZN8cH_Sinne4initERKSs 
	_ZN8cH_SinneC1ERKSsb 
	_ZN8cH_SinneC2ERKSsb 
	_ZN8cH_Typen4loadERK3Tag 
	_ZN8cH_Typen5cacheE  DATA
	_ZN8cH_TypenC1ERKSsb 
	_ZN8cH_TypenC1Ev 
	_ZN8cH_TypenC2ERKSsb 
	_ZN8cH_Waffe4loadERK3TagRb 
	_ZN8cH_Waffe5cacheE  DATA
	_ZN8cH_WaffeC1ERKSsb 
	_ZN8cH_WaffeC2ERKSsb 
	_ZN8KiDo_All4loadERSt4listI22cH_MidgardBasicElementSaIS1_EERK3Tag 
	_ZN8LibMagus13trace_channelE  DATA
	_ZN8LibMagus12trace_vectorE  DATA
	_ZN8NotFoundD0Ev 
	_ZN8NotFoundD1Ev 
	_ZN8Optionen12set_OriginalEbNS_18OptionenCheckIndexE 
	_ZN8Optionen13OptionenCheckENS_18OptionenCheckIndexE 
	_ZN8Optionen13Optionen_initEv 
	_ZN8Optionen13setHausregelnESsb 
	_ZN8Optionen14HausregelCheckENS_9HausIndexE 
	_ZN8Optionen14setOptionCheckESsb 
	_ZN8Optionen15Hausregeln_initEv 
	_ZN8Optionen17make_ausschluesseEv 
	_ZN8OptionenaSERKS_ 
	_ZN8OptionenC1ERKS_ 
	_ZN8OptionenC1Ev 
	_ZN8OptionenC2ERKS_ 
	_ZN8OptionenC2Ev 
	_ZN8Prototyp7setLastERK11Prozente100 
	_ZN8PrototypC1ERK3Tag 
	_ZN8PrototypC2ERK3Tag 
	_ZN8PrototypD0Ev 
	_ZN8PrototypD1Ev 
	_ZN8RuestungC1ERK3Tag 
	_ZN8RuestungC2ERK3Tag 
	_ZN8RuestungD0Ev 
	_ZN8RuestungD1Ev 
	_ZN9Beruf_All4loadERSt4listI22cH_MidgardBasicElementSaIS1_EERK3Tag 
	_ZN9Beruf_AllC1Ev 
	_ZN9Beruf_AllC2Ev 
	_ZN9cH_Preise4loadERK3TagRb 
	_ZN9cH_Preise5cacheE  DATA
	_ZN9cH_PreiseC1ERKSsb 
	_ZN9cH_PreiseC2ERKSsb 
	_ZN9cH_Region16getRegionfromAbkERKSs 
	_ZN9cH_Region4loadERK3TagRKSs 
	_ZN9cH_Region5cacheE  DATA
	_ZN9cH_RegionC1ERKSsb 
	_ZN9cH_RegionC2ERKSsb 
	_ZN9cH_Zauber4loadERK3TagRb 
	_ZN9cH_Zauber5cacheE  DATA
	_ZN9cH_ZauberC1ERKSsb 
	_ZN9cH_ZauberC2ERKSsb 
	_ZN9Datenbank11load_regionERK3TagRKSs 
	_ZN9Datenbank4initEN4SigC5Slot1IvdEE 
	_ZN9Datenbank4loadEN4SigC5Slot1IvdEE 
	_ZN9Datenbank9load_listERK3Tag 
	_ZN9DatenbankC1Ev 
	_ZN9DatenbankC2Ev 
	_ZN9ModelPlexIbE11actmodel2usEv 
	_ZN9ModelPlexIbE11we2actmodelEPv 
	_ZN9ModelPlexIbE22actmodel_value_changedEPv 
	_ZN9ModelPlexIbE9set_modelERK9Model_refIbE 
	_ZN9ModelPlexIbEC1ERK9Model_refIbE 
	_ZN9ModelPlexIbEC1ERKS0_ 
	_ZN9ModelPlexIbED1Ev 
	_ZN9ModelPlexIN6Wizard4modeEE11actmodel2usEv 
	_ZN9ModelPlexIN6Wizard4modeEE11we2actmodelEPv 
	_ZN9ModelPlexIN6Wizard4modeEE22actmodel_value_changedEPv 
	_ZN9ModelPlexIN6Wizard4modeEE9set_modelERK9Model_refIS1_E 
	_ZN9ModelPlexIN6Wizard6estepsEE11we2actmodelEPv 
	_ZN9ModelPlexIN6Wizard6estepsEE22actmodel_value_changedEPv 
	_ZN9ModelPlexIN6Wizard6estepsEE9set_modelERK9Model_refIS1_E 
	_ZN9Prototyp27fac_forERKSsS1_RKSt6vectorI12cH_Prototyp2SaIS3_EE 
	_ZN9Prototyp2C1ERK3Tag 
	_ZN9Prototyp2C2ERK3Tag 
	_ZN9Prototyp2D0Ev 
	_ZN9Prototyp2D1Ev 
	_ZN9recodebuf6xsputnEPKci 
	_ZN9recodebuf8overflowEi 
	_ZN9recodebufD0Ev 
	_ZN9recodebufD1Ev 
	_ZN9Sinne_All4initERSt4listI29H_MidgardBasicElement_mutableSaIS1_EE 
	_ZN9Typen_All4loadERSt4listI8cH_TypenSaIS1_EERK3Tag 
	_ZN9Typen_All4loadERSt6vectorI8cH_TypenSaIS1_EERK3Tag 
	_ZN9Waffe_All4loadERSt4listI22cH_MidgardBasicElementSaIS1_EERK3Tag 
	_ZneRK9cH_PreiseRKSs 
	_ZNK10Abenteurer10genug_geldEi 
	_ZNK10Abenteurer11ErfolgswertESs 
	_ZNK10Abenteurer11LastSavedAtEv 
	_ZNK10Abenteurer12getBelastungERKSs 
	_ZNK10Abenteurer12getBelastungEv 
	_ZNK10Abenteurer12getSchublastEv 
	_ZNK10Abenteurer12getUeberlastEv 
	_ZNK10Abenteurer12SErfolgswertESs 
	_ZNK10Abenteurer12steigern_mitERK29H_MidgardBasicElement_mutable 
	_ZNK10Abenteurer13getNormallastEv 
	_ZNK10Abenteurer14getHoechstlastEv 
	_ZNK10Abenteurer14speicherstreamERSo 
	_ZNK10Abenteurer15List_UniversellEv 
	_ZNK10Abenteurer15sort_universellclERKNS_13st_universellES3_ 
	_ZNK10Abenteurer16save_ausruestungER3TagRKSt4listI15AusruestungBaumSaIS3_EE 
	_ZNK10Abenteurer18Ruestung_B_VerlustEb 
	_ZNK10Abenteurer19ZauberSpruecheMitPPEv 
	_ZNK10Abenteurer20grundwerte_speichernER3Tag 
	_ZNK10Abenteurer30eigenschaften_steigern_erlaubtEv 
	_ZNK10Abenteurer35stufen_auf_einmal_steigern_fuer_aepERK29H_MidgardBasicElement_mutableRiS3_ 
	_ZNK10Abenteurer5BerufEv 
	_ZNK10Abenteurer5ValidEv 
	_ZNK10Abenteurer8genug_EPEiN19MidgardBasicElement4EP_tE 
	_ZNK10Abenteurer9EP_kostenEi 
	_ZNK10Abenteurer9getRegionERK9cH_Region 
	_ZNK10Abenteurer9PP_vorratERK29H_MidgardBasicElement_mutable 
	_ZNK10Abenteurer9speichernERSo 
	_ZNK10Fertigkeit10ZusatzEnumERKSt6vectorI8cH_TypenSaIS1_EE 
	_ZNK10Fertigkeit12FErfolgswertERK10AbenteurerRK29H_MidgardBasicElement_mutable 
	_ZNK10Fertigkeit13AttributBonusERK10Grundwerte 
	_ZNK10Fertigkeit13get_region_lpERiRK10Abenteurer 
	_ZNK10Fertigkeit13VoraussetzungERK10Abenteurerb 
	_ZNK10Fertigkeit13VoraussetzungEv 
	_ZNK10Fertigkeit14MaxErfolgswertERK10Abenteurer 
	_ZNK10Fertigkeit4WhatEv 
	_ZNK10Fertigkeit8LernLandEv 
	_ZNK10Fertigkeit8What_strEv 
	_ZNK10Fertigkeit9LernStadtEv 
	_ZNK10Fertigkeit9UngelerntERK10Abenteurer 
	_ZNK10Grundwerte10GroesseBezEv 
	_ZNK10Grundwerte11gold_kostenEi 
	_ZNK10Grundwerte13RaufenSchadenEv 
	_ZNK10Grundwerte14Geschlecht_strEv 
	_ZNK10Grundwerte14Stadt_Land_strEv 
	_ZNK10Grundwerte16Resistenzen_alleEv 
	_ZNK10Grundwerte19Ruestung_RW_VerlustEv 
	_ZNK10Grundwerte23Ruestung_Abwehr_VerlustERKSt4listI29H_MidgardBasicElement_mutableSaIS1_EE 
	_ZNK10Grundwerte24Ruestung_Angriff_VerlustERKSt4listI29H_MidgardBasicElement_mutableSaIS1_EE 
	_ZNK10Grundwerte4STypEv 
	_ZNK10Grundwerte5bo_AbEv 
	_ZNK10Grundwerte5bo_AnEv 
	_ZNK10Grundwerte5bo_AuEv 
	_ZNK10Grundwerte5bo_ScEv 
	_ZNK10Grundwerte5bo_ZaEv 
	_ZNK10Grundwerte6bo_PhkEv 
	_ZNK10Grundwerte6bo_PhsEv 
	_ZNK10Grundwerte6bo_PsyEv 
	_ZNK10Grundwerte6RaufenEv 
	_ZNK10Grundwerte7GestaltEv 
	_ZNK10Grundwerte7getSinnERKSs 
	_ZNK10Grundwerte7is_mageEv 
	_ZNK10Grundwerte7VersionEv 
	_ZNK10Grundwerte8RuestungEj 
	_ZNK10Grundwerte9check_350ERKSt6vectorIiSaIiEE 
	_ZNK10Grundwerte9ep_kostenEi 
	_ZNK10Lernschema11get_PflichtERKSt6vectorINS_8st_indexESaIS1_EE 
	_ZNK10Lernschema14get_LernpunkteERKSt6vectorINS_8st_indexESaIS1_EE 
	_ZNK10Lernschema8get_ListERKSsRKSt6vectorI8cH_TypenSaIS3_EERKSt4listI29H_MidgardBasicElement_mutableSaIS9_EE 
	_ZNK10WaffeGrund11is_sinnvollERKSt4listI22cH_MidgardBasicElementSaIS1_EERK10Abenteurer 
	_ZNK10WaffeGrund4WhatEv 
	_ZNK10WaffeGrund8What_strEv 
	_ZNK10Zauberwerk15VoraussetzungenERKSt4listI29H_MidgardBasicElement_mutableSaIS1_EE 
	_ZNK10Zauberwerk26Voraussetzungen_FertigkeitERKSt4listI29H_MidgardBasicElement_mutableSaIS1_EE 
	_ZNK10Zauberwerk4WhatEv 
	_ZNK10Zauberwerk5StufeEv 
	_ZNK10Zauberwerk8What_strEv 
	_ZNK10ZauberwerkeqERK19MidgardBasicElement 
	_ZNK11Ausruestung7SAnzahlEv 
	_ZNK11Ausruestung8SGewichtEv 
	_ZNK11Prozente1003getERKN19MidgardBasicElement4MBEEE 
	_ZNK11Prozente1004getSERKN19MidgardBasicElement4MBEEE 
	_ZNK11Prozente1007get100VEv 
	_ZNK11WaffeBesitz4WhatEv 
	_ZNK11WaffeBesitz5BonusEv 
	_ZNK11WaffeBesitz5WaffeEv 
	_ZNK11WaffeBesitz7SchadenERK10AbenteurerRKSs 
	_ZNK11WaffeBesitz8What_strEv 
	_ZNK12Grad_anstieg10getGFP_forENS_4ewasERK10Grundwerte 
	_ZNK12Grad_anstieg13get_AP_KostenEi 
	_ZNK12Grad_anstieg13get_MaxAbwehrEi 
	_ZNK12Grad_anstieg13get_MaxZauberEi 
	_ZNK12Grad_anstieg14getGFP_for_strENS_4ewasERK10Grundwerte 
	_ZNK12Grad_anstieg16get_MaxResistenzEi 
	_ZNK12Grad_anstieg17get_Abwehr_KostenEi 
	_ZNK12Grad_anstieg17get_Zauber_KostenEi 
	_ZNK12Grad_anstieg19get_SchicksalsgunstEi 
	_ZNK12Grad_anstieg20get_Resistenz_KostenEi 
	_ZNK12Grad_anstieg6getGFPEi 
	_ZNK12Grad_anstieg8get_GradEi 
	_ZNK13HandleContent5unrefEv 
	_ZNK14Magus_Optionen12getIconIndexEv 
	_ZNK14Magus_Optionen6ViewerEv 
	_ZNK14Magus_Optionen9getStringENS_11StringIndexE 
	_ZNK14ResistenzUndCo4WhatEv 
	_ZNK14ResistenzUndCo8What_strEv 
	_ZNK17AbenteurerAuswahl14actualIteratorEv 
	_ZNK17AbenteurerAuswahl5validEv 
	_ZNK19MidgardBasicElement10Standard__ERK10Abenteurer 
	_ZNK19MidgardBasicElement10ZusatzEnumERKSt6vectorI8cH_TypenSaIS1_EE 
	_ZNK19MidgardBasicElement11ist_gelerntERKSt4listISsSaISsEE 
	_ZNK19MidgardBasicElement11ist_lernbarERKSt6vectorI8cH_TypenSaIS1_EERKSt3mapISsSsSt4lessISsESaISt4pairIKSsSsEEE 
	_ZNK19MidgardBasicElement12FErfolgswertERK10AbenteurerRK29H_MidgardBasicElement_mutable 
	_ZNK19MidgardBasicElement12RegionStringEv 
	_ZNK19MidgardBasicElement13VoraussetzungERK10Abenteurerb 
	_ZNK19MidgardBasicElement13VoraussetzungEv 
	_ZNK19MidgardBasicElement14MaxErfolgswertERK10Abenteurer 
	_ZNK19MidgardBasicElement14standard_all_SERKSt6vectorISsSaISsEE 
	_ZNK19MidgardBasicElement14standard_one_GERKSt6vectorISsSaISsEE 
	_ZNK19MidgardBasicElement15AusnahmenStringERK10GrundwerteRK8cH_TypenSs 
	_ZNK19MidgardBasicElement15GrundfertigkeitERK10Abenteurer 
	_ZNK19MidgardBasicElement15Standard_FaktorERK10Abenteurer 
	_ZNK19MidgardBasicElement18StandardfertigkeitERK10Abenteurer 
	_ZNK19MidgardBasicElement19get_Steigern_KostenEi 
	_ZNK19MidgardBasicElement4NameEv 
	_ZNK19MidgardBasicElement5StufeEv 
	_ZNK19MidgardBasicElement6KostenERK10Abenteurer 
	_ZNK19MidgardBasicElement8LernLandEv 
	_ZNK19MidgardBasicElement8StandardERK10Abenteurer 
	_ZNK19MidgardBasicElement9LernStadtEv 
	_ZNK19MidgardBasicElementeqERKS_ 
	_ZNK19Sprache_und_Schrift14getErfolgswertEv 
	_ZNK21Fertigkeit_angeborene12FErfolgswertERK10AbenteurerRK29H_MidgardBasicElement_mutable 
	_ZNK21Fertigkeit_angeborene4WhatEv 
	_ZNK21Fertigkeit_angeborene8What_strEv 
	_ZNK27MidgardBasicElement_mutable10ReduzierenERK10Abenteurer 
	_ZNK27MidgardBasicElement_mutable11ist_gelerntERKSt4listI29H_MidgardBasicElement_mutableSaIS1_EE 
	_ZNK27MidgardBasicElement_mutable11Pflicht_strEv 
	_ZNK27MidgardBasicElement_mutable4WhatEv 
	_ZNK27MidgardBasicElement_mutable8SteigernERK10Abenteurer 
	_ZNK27MidgardBasicElement_mutable8What_strEv 
	_ZNK27MidgardBasicElement_mutable9VerlernenERK10Abenteurer 
	_ZNK29H_MidgardBasicElement_mutable4sortclES_S_ 
	_ZNK3Tag7getAttrIbEET_RKSs 
	_ZNK3Tag7getAttrIfEET_RKSs 
	_ZNK3Tag7getAttrIiEET_RKSs 
	_ZNK3Tag7getAttrISsEET_RKSs 
	_ZNK3Tag8getValueIiEET_RKSs 
	_ZNK3Tag8getValueISsEET_RKSs 
	_ZNK4KiDo14MaxErfolgswertERK10Abenteurer 
	_ZNK4KiDo4WhatEv 
	_ZNK4KiDo5StufeEv 
	_ZNK4KiDo8What_strEv 
	_ZNK4Land11ist_erlaubtERK10Abenteurer 
	_ZNK5Beruf3TypERKSt6vectorI8cH_TypenSaIS1_EE 
	_ZNK5Beruf4WhatEv 
	_ZNK5Beruf5StandERKSs 
	_ZNK5Beruf8What_strEv 
	_ZNK5Sinne4WhatEv 
	_ZNK5Sinne8What_strEv 
	_ZNK5Typen12MindestwerteERK10Grundwerte 
	_ZNK5Typen12SpezialwaffeEv 
	_ZNK5Typen13SpezialgebietEv 
	_ZNK5Typen20getLernpflichtenInfoE7cH_Land 
	_ZNK5Typen5ValidEv 
	_ZNK5Typen6GruppeERKSs 
	_ZNK5Waffe10ReichweiteEv 
	_ZNK5Waffe10WM_AngriffERKSs 
	_ZNK5Waffe13Schaden_BonusERKSs 
	_ZNK5Waffe13VoraussetzungERK10Abenteurerb 
	_ZNK5Waffe13VoraussetzungEv 
	_ZNK5Waffe14MaxErfolgswertERK10Abenteurer 
	_ZNK5Waffe14Min_St_EinhandERK10Grundwerte 
	_ZNK5Waffe14Schaden_Bonus2ERKSs 
	_ZNK5Waffe17Schwierigkeit_strEv 
	_ZNK5Waffe23Grundkenntnis_vorhandenERKSt4listI29H_MidgardBasicElement_mutableSaIS1_EE 
	_ZNK5Waffe4WhatEv 
	_ZNK5Waffe6RegionERKSs 
	_ZNK5Waffe7SchadenERKSs 
	_ZNK5Waffe8LernLandEv 
	_ZNK5Waffe8What_strEv 
	_ZNK5Waffe9LernStadtEv 
	_ZNK5Waffe9WM_AbwehrEv 
	_ZNK6Zauber10Kosten_eBeERKSsS1_ 
	_ZNK6Zauber13Erfolgswert_ZERK10Abenteurer 
	_ZNK6Zauber14MaxErfolgswertERK10Abenteurer 
	_ZNK6Zauber20spruchrolle_wuerfelnERK10Abenteureri 
	_ZNK6Zauber29get_spezial_zauber_for_magierERK10AbenteurerRKSs 
	_ZNK6Zauber4WhatEv 
	_ZNK6Zauber5AgensERKSt6vectorI8cH_TypenSaIS1_EE 
	_ZNK6Zauber5StufeEv 
	_ZNK6Zauber6iStufeEv 
	_ZNK6Zauber8What_strEv 
	_ZNK6Zufall10getSpeziesEv 
	_ZNK6Zufall12getStadtLandEv 
	_ZNK6Zufall13getGeschlechtEv 
	_ZNK6Zufall13getUeberlebenEv 
	_ZNK6Zufall16getMutterspracheEv 
	_ZNK6Zufall6getTypEv 
	_ZNK6Zufall7getLandEv 
	_ZNK6Zufall9getZusatzEN19MidgardBasicElement7eZusatzER29H_MidgardBasicElement_mutableb 
	_ZNK7cH_KiDo4sortclE29H_MidgardBasicElement_mutableS1_ 
	_ZNK7MagusKI13NeuLernenListEN19MidgardBasicElement4MBEEEi 
	_ZNK7MagusKI3WasEv 
	_ZNK7MagusKI7ausgabeERKNS_5st_KIEbN19MidgardBasicElement4MBEEE 
	_ZNK7Schrift12kann_SpracheERKSt4listI29H_MidgardBasicElement_mutableSaIS1_EE 
	_ZNK7Schrift13MutterschriftERK10Abenteurer 
	_ZNK7Schrift14gleicheSchriftERKSt4listI22cH_MidgardBasicElementSaIS1_EE 
	_ZNK7Schrift14MaxErfolgswertERK10Abenteurer 
	_ZNK7Schrift4WhatEv 
	_ZNK7Schrift8What_strEv 
	_ZNK7Spezies11istVerbotenERK22cH_MidgardBasicElement 
	_ZNK7Spezies11Typ_erlaubtESs 
	_ZNK7Spezies14B_DurchschnittEv 
	_ZNK7Spezies15getFertigkeitenERiRK10Grundwerte 
	_ZNK7Spezies18getAngFertigkeitenEv 
	_ZNK7Spezies21istVerbotenSpielbeginERK22cH_MidgardBasicElement 
	_ZNK7Spezies26getFreiwilligeFertigkeitenERK10Grundwerte 
	_ZNK7Spezies3PhkERK10Grundwerte 
	_ZNK7Spezies3PhsERK10Grundwerte 
	_ZNK7Spezies3PsyERK10Grundwerte 
	_ZNK7Spezies8getSinneEv 
	_ZNK7Spezies9getZauberEv 
	_ZNK7Sprache11ist_erlaubtERK10Abenteurerb 
	_ZNK7Sprache11SchriftWertEibRKSt4listI29H_MidgardBasicElement_mutableSaIS1_EE 
	_ZNK7Sprache12SprachgruppeERKSt6vectorIiSaIiEE 
	_ZNK7Sprache14MaxErfolgswertERK10Abenteurer 
	_ZNK7Sprache17VerwandteSprachenEiRKSt4listI29H_MidgardBasicElement_mutableSaIS1_EERKS0_I22cH_MidgardBasicElementSaIS6_EE 
	_ZNK7Sprache22getHoeherenErfolgswertERKSt4listI29H_MidgardBasicElement_mutableSaIS1_EERKS0_I22cH_MidgardBasicElementSaIS6_EE 
	_ZNK7Sprache4WhatEv 
	_ZNK7Sprache6KostenERK10Abenteurer 
	_ZNK7Sprache8What_strEv 
	_ZNK7Sprache9SchriftenEv 
	_ZNK8NotFound4whatEv 
	_ZNK8Optionen13OptionenCheckENS_18OptionenCheckIndexE 
	_ZNK8Optionen14HausregelCheckENS_9HausIndexE 
	_ZNK8Ruestung19AbwehrBonus_VerlustEi 
	_ZNK8Ruestung21AngriffsBonus_VerlustEi 
	_ZNK8Ruestung9B_VerlustERKdRK10GrundwerteRb 
	_ZNK9cH_Zauber4sortclE29H_MidgardBasicElement_mutableS1_ 
	_ZNKSt6vectorIN19Sprache_und_Schrift6st_susESaIS1_EE4sizeEv 
	_ZNKSt8_Rb_treeI9cH_RegionSt4pairIKS0_14Model_copyableIbEESt10_Select1stIS5_ESt4lessIS0_ESaIS5_EE4findERS2_ 
	_ZNSt10_List_baseI10RadioModelSaIS0_EE8_M_clearEv 
	_ZNSt10_List_baseI11cH_PrototypSaIS0_EE8_M_clearEv 
	_ZNSt10_List_baseI12cH_Prototyp2SaIS0_EE8_M_clearEv 
	_ZNSt10_List_baseI13H_WaffeBesitzSaIS0_EE8_M_clearEv 
	_ZNSt10_List_baseI15AusruestungBaumSaIS0_EE8_M_clearEv 
	_ZNSt10_List_baseI22cH_MidgardBasicElementSaIS0_EE8_M_clearEv 
	_ZNSt10_List_baseI29H_MidgardBasicElement_mutableSaIS0_EE8_M_clearEv 
	_ZNSt10_List_baseI3TagSaIS0_EE8_M_clearEv 
	_ZNSt10_List_baseI7st_sortSaIS0_EE8_M_clearEv 
	_ZNSt10_List_baseI9cH_PreiseSaIS0_EE8_M_clearEv 
	_ZNSt10_List_baseIN10Abenteurer13st_universellESaIS1_EE8_M_clearEv 
	_ZNSt10_List_baseIN14Magus_Optionen10st_stringsESaIS1_EE8_M_clearEv 
	_ZNSt10_List_baseIN14Magus_Optionen12st_base_boolINS0_9IconIndexEEESaIS3_EE8_M_clearEv 
	_ZNSt10_List_baseIN14Magus_Optionen16st_OptionenCheckESaIS1_EE8_M_clearEv 
	_ZNSt10_List_baseIN14Magus_Optionen17st_WindowPositionESaIS1_EE8_M_clearEv 
	_ZNSt10_List_baseIN14Magus_Optionen7st_baseINS0_20OptionenExecuteIndexEEESaIS3_EE8_M_clearEv 
	_ZNSt10_List_baseIN14Magus_Optionen7st_OberESaIS1_EE8_M_clearEv 
	_ZNSt10_List_baseIN15AbenteurerListe4ItemESaIS1_EE8_M_clearEv 
	_ZNSt10_List_baseIN5Waffe8st_aliasESaIS1_EE8_M_clearEv 
	_ZNSt10_List_baseIN8Optionen16st_OptionenCheckESaIS1_EE8_M_clearEv 
	_ZNSt10_List_baseIN8Optionen7st_HausESaIS1_EE8_M_clearEv 
	_ZNSt10_List_baseISsSaISsEE8_M_clearEv 
	_ZNSt10_List_baseISt4pairISsiESaIS1_EE8_M_clearEv 
	_ZNSt12out_of_rangeD0Ev 
	_ZNSt12out_of_rangeD1Ev 
	_ZNSt3mapI9cH_Region14Model_copyableIbESt4lessIS0_ESaISt4pairIKS0_S2_EEEixERS6_ 
	_ZNSt3mapI9cH_Region9ModelPlexIbESt4lessIS0_ESaISt4pairIKS0_S2_EEEixERS6_ 
	_ZNSt3mapIN10Lernschema8st_indexENS0_7st_wertESt4lessIS1_ESaISt4pairIKS1_S2_EEEixERS6_ 
	_ZNSt3mapIN8Optionen9HausIndexE9ModelPlexIbESt4lessIS1_ESaISt4pairIKS1_S3_EEEixERS7_ 
	_ZNSt4listI13H_WaffeBesitzSaIS0_EE5eraseESt14_List_iteratorIS0_E 
	_ZNSt4listI13H_WaffeBesitzSaIS0_EE6removeERKS0_ 
	_ZNSt4listI13H_WaffeBesitzSaIS0_EEaSERKS2_ 
	_ZNSt4listI15AusruestungBaumSaIS0_EE5eraseESt14_List_iteratorIS0_E 
	_ZNSt4listI15AusruestungBaumSaIS0_EEaSERKS2_ 
	_ZNSt4listI15AusruestungBaumSaIS0_EEC1ERKS2_ 
	_ZNSt4listI22cH_MidgardBasicElementSaIS0_EE5eraseESt14_List_iteratorIS0_E 
	_ZNSt4listI22cH_MidgardBasicElementSaIS0_EEaSERKS2_ 
	_ZNSt4listI22cH_MidgardBasicElementSaIS0_EEC1ERKS1_ 
	_ZNSt4listI29H_MidgardBasicElement_mutableSaIS0_EE4sortEv 
	_ZNSt4listI29H_MidgardBasicElement_mutableSaIS0_EE4sortINS0_4sortEEEvT_ 
	_ZNSt4listI29H_MidgardBasicElement_mutableSaIS0_EE5eraseESt14_List_iteratorIS0_E 
	_ZNSt4listI29H_MidgardBasicElement_mutableSaIS0_EE5mergeERS2_ 
	_ZNSt4listI29H_MidgardBasicElement_mutableSaIS0_EE5mergeINS0_4sortEEEvRS2_T_ 
	_ZNSt4listI29H_MidgardBasicElement_mutableSaIS0_EE6removeERKS0_ 
	_ZNSt4listI29H_MidgardBasicElement_mutableSaIS0_EE6uniqueEv 
	_ZNSt4listI29H_MidgardBasicElement_mutableSaIS0_EEaSERKS2_ 
	_ZNSt4listI29H_MidgardBasicElement_mutableSaIS0_EEC1ERKS2_ 
	_ZNSt4listI3TagSaIS0_EE5eraseESt14_List_iteratorIS0_E 
	_ZNSt4listI3TagSaIS0_EEaSERKS2_ 
	_ZNSt4listI7st_sortSaIS0_EE4sortEv 
	_ZNSt4listI7st_sortSaIS0_EE5mergeERS2_ 
	_ZNSt4listIN10Abenteurer13st_universellESaIS1_EE4sortINS0_15sort_universellEEEvT_ 
	_ZNSt4listIN10Abenteurer13st_universellESaIS1_EE5mergeINS0_15sort_universellEEEvRS3_T_ 
	_ZNSt4listIN14Magus_Optionen7st_OberESaIS1_EE9push_backERKS1_ 
	_ZNSt4listIN15AbenteurerListe4ItemESaIS1_EE4sortIN11VAbenteurer4sortEEEvT_ 
	_ZNSt4listIN15AbenteurerListe4ItemESaIS1_EE5eraseESt14_List_iteratorIS1_E 
	_ZNSt4listIN15AbenteurerListe4ItemESaIS1_EE5mergeIN11VAbenteurer4sortEEEvRS3_T_ 
	_ZNSt4listIN8Optionen16st_OptionenCheckESaIS1_EE5eraseESt14_List_iteratorIS1_E 
	_ZNSt4listIN8Optionen16st_OptionenCheckESaIS1_EEaSERKS3_ 
	_ZNSt4listIN8Optionen7st_HausESaIS1_EE5eraseESt14_List_iteratorIS1_E 
	_ZNSt4listIN8Optionen7st_HausESaIS1_EEaSERKS3_ 
	_ZNSt4listISsSaISsEE5eraseESt14_List_iteratorISsE 
	_ZNSt4listISsSaISsEEaSERKS1_ 
	_ZNSt6vectorI10cH_SpeziesSaIS0_EE13_M_insert_auxEN9__gnu_cxx17__normal_iteratorIPS0_S2_EERKS0_ 
	_ZNSt6vectorI11cH_RuestungSaIS0_EE13_M_insert_auxEN9__gnu_cxx17__normal_iteratorIPS0_S2_EERKS0_ 
	_ZNSt6vectorI11cH_RuestungSaIS0_EE5eraseEN9__gnu_cxx17__normal_iteratorIPS0_S2_EES6_ 
	_ZNSt6vectorI11cH_RuestungSaIS0_EEaSERKS2_ 
	_ZNSt6vectorI12cH_Prototyp2SaIS0_EE5eraseEN9__gnu_cxx17__normal_iteratorIPS0_S2_EES6_ 
	_ZNSt6vectorI12cH_Prototyp2SaIS0_EEaSERKS2_ 
	_ZNSt6vectorI13H_WaffeBesitzSaIS0_EE13_M_insert_auxEN9__gnu_cxx17__normal_iteratorIPS0_S2_EERKS0_ 
	_ZNSt6vectorI15cH_PreiseNewModSaIS0_EE13_M_insert_auxEN9__gnu_cxx17__normal_iteratorIPS0_S2_EERKS0_ 
	_ZNSt6vectorI16cH_SpezialgebietSaIS0_EE13_M_insert_auxEN9__gnu_cxx17__normal_iteratorIPS0_S2_EERKS0_ 
	_ZNSt6vectorI19Sprache_und_SchriftSaIS0_EE13_M_insert_auxEN9__gnu_cxx17__normal_iteratorIPS0_S2_EERKS0_ 
	_ZNSt6vectorI29H_MidgardBasicElement_mutableSaIS0_EE13_M_insert_auxEN9__gnu_cxx17__normal_iteratorIPS0_S2_EERKS0_ 
	_ZNSt6vectorI5st_isSaIS0_EE13_M_insert_auxEN9__gnu_cxx17__normal_iteratorIPS0_S2_EERKS0_ 
	_ZNSt6vectorI5st_WBSaIS0_EE13_M_insert_auxEN9__gnu_cxx17__normal_iteratorIPS0_S2_EERKS0_ 
	_ZNSt6vectorI7cH_LandSaIS0_EE13_M_insert_auxEN9__gnu_cxx17__normal_iteratorIPS0_S2_EERKS0_ 
	_ZNSt6vectorI8cH_TypenSaIS0_EE13_M_insert_auxEN9__gnu_cxx17__normal_iteratorIPS0_S2_EERKS0_ 
	_ZNSt6vectorI8cH_TypenSaIS0_EE14_M_fill_insertEN9__gnu_cxx17__normal_iteratorIPS0_S2_EEjRKS0_ 
	_ZNSt6vectorI8cH_TypenSaIS0_EE5eraseEN9__gnu_cxx17__normal_iteratorIPS0_S2_EES6_ 
	_ZNSt6vectorI8cH_TypenSaIS0_EEaSERKS2_ 
	_ZNSt6vectorI9cH_RegionSaIS0_EE13_M_insert_auxEN9__gnu_cxx17__normal_iteratorIPS0_S2_EERKS0_ 
	_ZNSt6vectorI9Model_refIbESaIS1_EE13_M_insert_auxEN9__gnu_cxx17__normal_iteratorIPS1_S3_EERKS1_ 
	_ZNSt6vectorIiSaIiEE13_M_insert_auxEN9__gnu_cxx17__normal_iteratorIPiS1_EERKi 
	_ZNSt6vectorIiSaIiEE5eraseEN9__gnu_cxx17__normal_iteratorIPiS1_EES5_ 
	_ZNSt6vectorIiSaIiEEaSERKS1_ 
	_ZNSt6vectorIN10Fertigkeit14st_region_lernESaIS1_EE13_M_insert_auxEN9__gnu_cxx17__normal_iteratorIPS1_S3_EERKS1_ 
	_ZNSt6vectorIN10Fertigkeit9st_besitzESaIS1_EE13_M_insert_auxEN9__gnu_cxx17__normal_iteratorIPS1_S3_EERKS1_ 
	_ZNSt6vectorIN10Lernschema8st_indexESaIS1_EE13_M_insert_auxEN9__gnu_cxx17__normal_iteratorIPS1_S3_EERKS1_ 
	_ZNSt6vectorIN10Lernschema8st_indexESaIS1_EEaSERKS3_ 
	_ZNSt6vectorIN10Zauberwerk6st_vorESaIS1_EE13_M_insert_auxEN9__gnu_cxx17__normal_iteratorIPS1_S3_EERKS1_ 
	_ZNSt6vectorIN11Prozente1006st_wasESaIS1_EE13_M_insert_auxEN9__gnu_cxx17__normal_iteratorIPS1_S3_EERKS1_ 
	_ZNSt6vectorIN11Prozente1006st_wasESaIS1_EEaSERKS3_ 
	_ZNSt6vectorIN12PreiseNewMod11st_preismodESaIS1_EE13_M_insert_auxEN9__gnu_cxx17__normal_iteratorIPS1_S3_EERKS1_ 
	_ZNSt6vectorIN15AbenteurerListe7st_undoESaIS1_EE13_M_insert_auxEN9__gnu_cxx17__normal_iteratorIPS1_S3_EERKS1_ 
	_ZNSt6vectorIN15AbenteurerListe7st_undoESaIS1_EE5eraseEN9__gnu_cxx17__normal_iteratorIPS1_S3_EES7_ 
	_ZNSt6vectorIN19MidgardBasicElement12st_ausnahmenESaIS1_EE13_M_insert_auxEN9__gnu_cxx17__normal_iteratorIPS1_S3_EERKS1_ 
	_ZNSt6vectorIN19MidgardBasicElement9st_zusatzESaIS1_EE13_M_insert_auxEN9__gnu_cxx17__normal_iteratorIPS1_S3_EERKS1_ 
	_ZNSt6vectorIN19MidgardBasicElement9st_zusatzESaIS1_EEaSERKS3_ 
	_ZNSt6vectorIN19Sprache_und_Schrift6st_susESaIS1_EE13_M_insert_auxEN9__gnu_cxx17__normal_iteratorIPS1_S3_EERKS1_ 
	_ZNSt6vectorIN19Sprache_und_Schrift6st_susESaIS1_EEaSERKS3_ 
	_ZNSt6vectorIN5Beruf10st_vorteilESaIS1_EE13_M_insert_auxEN9__gnu_cxx17__normal_iteratorIPS1_S3_EERKS1_ 
	_ZNSt6vectorIN5Typen11st_herkunftESaIS1_EE13_M_insert_auxEN9__gnu_cxx17__normal_iteratorIPS1_S3_EERKS1_ 
	_ZNSt6vectorIN7Spezies12st_angebfertESaIS1_EE13_M_insert_auxEN9__gnu_cxx17__normal_iteratorIPS1_S3_EERKS1_ 
	_ZNSt6vectorIN7Spezies7st_spezESaIS1_EE13_M_insert_auxEN9__gnu_cxx17__normal_iteratorIPS1_S3_EERKS1_ 
	_ZNSt6vectorIN9Prototyp214st_protolistenESaIS1_EE13_M_insert_auxEN9__gnu_cxx17__normal_iteratorIPS1_S3_EERKS1_ 
	_ZNSt6vectorIN9Prototyp214st_protolistenESaIS1_EEaSERKS3_ 
	_ZNSt6vectorISsSaISsEE13_M_insert_auxEN9__gnu_cxx17__normal_iteratorIPSsS1_EERKSs 
	_ZNSt6vectorISsSaISsEE14_M_fill_insertEN9__gnu_cxx17__normal_iteratorIPSsS1_EEjRKSs 
	_ZNSt6vectorISsSaISsEE5eraseEN9__gnu_cxx17__normal_iteratorIPSsS1_EE 
	_ZNSt6vectorISsSaISsEE5eraseEN9__gnu_cxx17__normal_iteratorIPSsS1_EES5_ 
	_ZNSt6vectorISsSaISsEE6insertEN9__gnu_cxx17__normal_iteratorIPSsS1_EERKSs 
	_ZNSt6vectorISsSaISsEEaSERKS1_ 
	_ZNSt6vectorISt4pairI7cH_LandbESaIS2_EE13_M_insert_auxEN9__gnu_cxx17__normal_iteratorIPS2_S4_EERKS2_ 
	_ZNSt6vectorISt4pairI8cH_TypenbESaIS2_EE13_M_insert_auxEN9__gnu_cxx17__normal_iteratorIPS2_S4_EERKS2_ 
	_ZNSt8_Rb_treeI8cH_TypenSt4pairIKS0_SsESt10_Select1stIS3_ESt4lessIS0_ESaIS3_EE11lower_boundERS2_ 
	_ZNSt8_Rb_treeI8cH_TypenSt4pairIKS0_SsESt10_Select1stIS3_ESt4lessIS0_ESaIS3_EE13insert_uniqueERKS3_ 
	_ZNSt8_Rb_treeI8cH_TypenSt4pairIKS0_SsESt10_Select1stIS3_ESt4lessIS0_ESaIS3_EE13insert_uniqueESt17_Rb_tree_iteratorIS3_ERKS3_ 
	_ZNSt8_Rb_treeI8cH_TypenSt4pairIKS0_SsESt10_Select1stIS3_ESt4lessIS0_ESaIS3_EE8_M_eraseEPSt13_Rb_tree_nodeIS3_E 
	_ZNSt8_Rb_treeI8cH_TypenSt4pairIKS0_SsESt10_Select1stIS3_ESt4lessIS0_ESaIS3_EE9_M_insertEPSt18_Rb_tree_node_baseSB_RKS3_ 
	_ZNSt8_Rb_treeI9cH_RegionSt4pairIKS0_14Model_copyableIbEESt10_Select1stIS5_ESt4lessIS0_ESaIS5_EE11lower_boundERS2_ 
	_ZNSt8_Rb_treeI9cH_RegionSt4pairIKS0_14Model_copyableIbEESt10_Select1stIS5_ESt4lessIS0_ESaIS5_EE13insert_uniqueERKS5_ 
	_ZNSt8_Rb_treeI9cH_RegionSt4pairIKS0_14Model_copyableIbEESt10_Select1stIS5_ESt4lessIS0_ESaIS5_EE13insert_uniqueESt17_Rb_tree_iteratorIS5_ERKS5_ 
	_ZNSt8_Rb_treeI9cH_RegionSt4pairIKS0_14Model_copyableIbEESt10_Select1stIS5_ESt4lessIS0_ESaIS5_EE7_M_copyEPKSt13_Rb_tree_nodeIS5_EPSD_ 
	_ZNSt8_Rb_treeI9cH_RegionSt4pairIKS0_14Model_copyableIbEESt10_Select1stIS5_ESt4lessIS0_ESaIS5_EE8_M_eraseEPSt13_Rb_tree_nodeIS5_E 
	_ZNSt8_Rb_treeI9cH_RegionSt4pairIKS0_14Model_copyableIbEESt10_Select1stIS5_ESt4lessIS0_ESaIS5_EE9_M_insertEPSt18_Rb_tree_node_baseSD_RKS5_ 
	_ZNSt8_Rb_treeI9cH_RegionSt4pairIKS0_14Model_copyableIbEESt10_Select1stIS5_ESt4lessIS0_ESaIS5_EEaSERKSB_ 
	_ZNSt8_Rb_treeI9cH_RegionSt4pairIKS0_9ModelPlexIbEESt10_Select1stIS5_ESt4lessIS0_ESaIS5_EE11lower_boundERS2_ 
	_ZNSt8_Rb_treeI9cH_RegionSt4pairIKS0_9ModelPlexIbEESt10_Select1stIS5_ESt4lessIS0_ESaIS5_EE13insert_uniqueERKS5_ 
	_ZNSt8_Rb_treeI9cH_RegionSt4pairIKS0_9ModelPlexIbEESt10_Select1stIS5_ESt4lessIS0_ESaIS5_EE13insert_uniqueESt17_Rb_tree_iteratorIS5_ERKS5_ 
	_ZNSt8_Rb_treeI9cH_RegionSt4pairIKS0_9ModelPlexIbEESt10_Select1stIS5_ESt4lessIS0_ESaIS5_EE8_M_eraseEPSt13_Rb_tree_nodeIS5_E 
	_ZNSt8_Rb_treeI9cH_RegionSt4pairIKS0_9ModelPlexIbEESt10_Select1stIS5_ESt4lessIS0_ESaIS5_EE9_M_insertEPSt18_Rb_tree_node_baseSD_RKS5_ 
	_ZNSt8_Rb_treeIiSt4pairIKiiESt10_Select1stIS2_ESt4lessIiESaIS2_EE11lower_boundERS1_ 
	_ZNSt8_Rb_treeIiSt4pairIKiiESt10_Select1stIS2_ESt4lessIiESaIS2_EE13insert_uniqueERKS2_ 
	_ZNSt8_Rb_treeIiSt4pairIKiiESt10_Select1stIS2_ESt4lessIiESaIS2_EE13insert_uniqueESt17_Rb_tree_iteratorIS2_ERKS2_ 
	_ZNSt8_Rb_treeIiSt4pairIKiiESt10_Select1stIS2_ESt4lessIiESaIS2_EE7_M_copyEPKSt13_Rb_tree_nodeIS2_EPSA_ 
	_ZNSt8_Rb_treeIiSt4pairIKiiESt10_Select1stIS2_ESt4lessIiESaIS2_EE8_M_eraseEPSt13_Rb_tree_nodeIS2_E 
	_ZNSt8_Rb_treeIiSt4pairIKiiESt10_Select1stIS2_ESt4lessIiESaIS2_EE9_M_insertEPSt18_Rb_tree_node_baseSA_RKS2_ 
	_ZNSt8_Rb_treeIiSt4pairIKiiESt10_Select1stIS2_ESt4lessIiESaIS2_EEaSERKS8_ 
	_ZNSt8_Rb_treeIiSt4pairIKiN12Grad_anstieg7st_gradEESt10_Select1stIS4_ESt4lessIiESaIS4_EE11lower_boundERS1_ 
	_ZNSt8_Rb_treeIiSt4pairIKiN12Grad_anstieg7st_gradEESt10_Select1stIS4_ESt4lessIiESaIS4_EE13insert_uniqueERKS4_ 
	_ZNSt8_Rb_treeIiSt4pairIKiN12Grad_anstieg7st_gradEESt10_Select1stIS4_ESt4lessIiESaIS4_EE13insert_uniqueESt17_Rb_tree_iteratorIS4_ERKS4_ 
	_ZNSt8_Rb_treeIiSt4pairIKiN12Grad_anstieg7st_gradEESt10_Select1stIS4_ESt4lessIiESaIS4_EE8_M_eraseEPSt13_Rb_tree_nodeIS4_E 
	_ZNSt8_Rb_treeIiSt4pairIKiN12Grad_anstieg7st_gradEESt10_Select1stIS4_ESt4lessIiESaIS4_EE9_M_insertEPSt18_Rb_tree_node_baseSC_RKS4_ 
	_ZNSt8_Rb_treeIiSt4pairIKiSt3mapIiiSt4lessIiESaIS0_IS1_iEEEESt10_Select1stIS8_ES4_SaIS8_EE11lower_boundERS1_ 
	_ZNSt8_Rb_treeIiSt4pairIKiSt3mapIiiSt4lessIiESaIS0_IS1_iEEEESt10_Select1stIS8_ES4_SaIS8_EE13insert_uniqueERKS8_ 
	_ZNSt8_Rb_treeIiSt4pairIKiSt3mapIiiSt4lessIiESaIS0_IS1_iEEEESt10_Select1stIS8_ES4_SaIS8_EE13insert_uniqueESt17_Rb_tree_iteratorIS8_ERKS8_ 
	_ZNSt8_Rb_treeIiSt4pairIKiSt3mapIiiSt4lessIiESaIS0_IS1_iEEEESt10_Select1stIS8_ES4_SaIS8_EE8_M_eraseEPSt13_Rb_tree_nodeIS8_E 
	_ZNSt8_Rb_treeIiSt4pairIKiSt3mapIiiSt4lessIiESaIS0_IS1_iEEEESt10_Select1stIS8_ES4_SaIS8_EE9_M_insertEPSt18_Rb_tree_node_baseSE_RKS8_ 
	_ZNSt8_Rb_treeIiSt4pairIKiSt4listI29H_MidgardBasicElement_mutableSaIS3_EEESt10_Select1stIS6_ESt4lessIiESaIS6_EE11lower_boundERS1_ 
	_ZNSt8_Rb_treeIiSt4pairIKiSt4listI29H_MidgardBasicElement_mutableSaIS3_EEESt10_Select1stIS6_ESt4lessIiESaIS6_EE13insert_uniqueERKS6_ 
	_ZNSt8_Rb_treeIiSt4pairIKiSt4listI29H_MidgardBasicElement_mutableSaIS3_EEESt10_Select1stIS6_ESt4lessIiESaIS6_EE13insert_uniqueESt17_Rb_tree_iteratorIS6_ERKS6_ 
	_ZNSt8_Rb_treeIiSt4pairIKiSt4listI29H_MidgardBasicElement_mutableSaIS3_EEESt10_Select1stIS6_ESt4lessIiESaIS6_EE8_M_eraseEPSt13_Rb_tree_nodeIS6_E 
	_ZNSt8_Rb_treeIiSt4pairIKiSt4listI29H_MidgardBasicElement_mutableSaIS3_EEESt10_Select1stIS6_ESt4lessIiESaIS6_EE9_M_insertEPSt18_Rb_tree_node_baseSE_RKS6_ 
	_ZNSt8_Rb_treeIN10Lernschema8st_indexESt4pairIKS1_NS0_7st_wertEESt10_Select1stIS5_ESt4lessIS1_ESaIS5_EE11lower_boundERS3_ 
	_ZNSt8_Rb_treeIN10Lernschema8st_indexESt4pairIKS1_NS0_7st_wertEESt10_Select1stIS5_ESt4lessIS1_ESaIS5_EE13insert_uniqueERKS5_ 
	_ZNSt8_Rb_treeIN10Lernschema8st_indexESt4pairIKS1_NS0_7st_wertEESt10_Select1stIS5_ESt4lessIS1_ESaIS5_EE13insert_uniqueESt17_Rb_tree_iteratorIS5_ERKS5_ 
	_ZNSt8_Rb_treeIN10Lernschema8st_indexESt4pairIKS1_NS0_7st_wertEESt10_Select1stIS5_ESt4lessIS1_ESaIS5_EE8_M_eraseEPSt13_Rb_tree_nodeIS5_E 
	_ZNSt8_Rb_treeIN10Lernschema8st_indexESt4pairIKS1_NS0_7st_wertEESt10_Select1stIS5_ESt4lessIS1_ESaIS5_EE9_M_insertEPSt18_Rb_tree_node_baseSD_RKS5_ 
	_ZNSt8_Rb_treeIN13cH_Zauberwerk8st_indexESt4pairIKS1_S0_ESt10_Select1stIS4_ESt4lessIS1_ESaIS4_EE11lower_boundERS3_ 
	_ZNSt8_Rb_treeIN13cH_Zauberwerk8st_indexESt4pairIKS1_S0_ESt10_Select1stIS4_ESt4lessIS1_ESaIS4_EE13insert_uniqueERKS4_ 
	_ZNSt8_Rb_treeIN13cH_Zauberwerk8st_indexESt4pairIKS1_S0_ESt10_Select1stIS4_ESt4lessIS1_ESaIS4_EE13insert_uniqueESt17_Rb_tree_iteratorIS4_ERKS4_ 
	_ZNSt8_Rb_treeIN13cH_Zauberwerk8st_indexESt4pairIKS1_S0_ESt10_Select1stIS4_ESt4lessIS1_ESaIS4_EE4findERS3_ 
	_ZNSt8_Rb_treeIN13cH_Zauberwerk8st_indexESt4pairIKS1_S0_ESt10_Select1stIS4_ESt4lessIS1_ESaIS4_EE8_M_eraseEPSt13_Rb_tree_nodeIS4_E 
	_ZNSt8_Rb_treeIN13cH_Zauberwerk8st_indexESt4pairIKS1_S0_ESt10_Select1stIS4_ESt4lessIS1_ESaIS4_EE9_M_insertEPSt18_Rb_tree_node_baseSC_RKS4_ 
	_ZNSt8_Rb_treeIN14Magus_Optionen22st_Global_Settings_keyESt4pairIKS1_SsESt10_Select1stIS4_ESt4lessIS1_ESaIS4_EE11lower_boundERS3_ 
	_ZNSt8_Rb_treeIN14Magus_Optionen22st_Global_Settings_keyESt4pairIKS1_SsESt10_Select1stIS4_ESt4lessIS1_ESaIS4_EE13insert_uniqueERKS4_ 
	_ZNSt8_Rb_treeIN14Magus_Optionen22st_Global_Settings_keyESt4pairIKS1_SsESt10_Select1stIS4_ESt4lessIS1_ESaIS4_EE13insert_uniqueESt17_Rb_tree_iteratorIS4_ERKS4_ 
	_ZNSt8_Rb_treeIN14Magus_Optionen22st_Global_Settings_keyESt4pairIKS1_SsESt10_Select1stIS4_ESt4lessIS1_ESaIS4_EE8_M_eraseEPSt13_Rb_tree_nodeIS4_E 
	_ZNSt8_Rb_treeIN14Magus_Optionen22st_Global_Settings_keyESt4pairIKS1_SsESt10_Select1stIS4_ESt4lessIS1_ESaIS4_EE9_M_insertEPSt18_Rb_tree_node_baseSC_RKS4_ 
	_ZNSt8_Rb_treeIN8Optionen18OptionenCheckIndexESt4pairIKS1_9ModelPlexIbEESt10_Select1stIS6_ESt4lessIS1_ESaIS6_EE11lower_boundERS3_ 
	_ZNSt8_Rb_treeIN8Optionen18OptionenCheckIndexESt4pairIKS1_9ModelPlexIbEESt10_Select1stIS6_ESt4lessIS1_ESaIS6_EE13insert_uniqueERKS6_ 
	_ZNSt8_Rb_treeIN8Optionen18OptionenCheckIndexESt4pairIKS1_9ModelPlexIbEESt10_Select1stIS6_ESt4lessIS1_ESaIS6_EE13insert_uniqueESt17_Rb_tree_iteratorIS6_ERKS6_ 
	_ZNSt8_Rb_treeIN8Optionen18OptionenCheckIndexESt4pairIKS1_9ModelPlexIbEESt10_Select1stIS6_ESt4lessIS1_ESaIS6_EE8_M_eraseEPSt13_Rb_tree_nodeIS6_E 
	_ZNSt8_Rb_treeIN8Optionen18OptionenCheckIndexESt4pairIKS1_9ModelPlexIbEESt10_Select1stIS6_ESt4lessIS1_ESaIS6_EE9_M_insertEPSt18_Rb_tree_node_baseSE_RKS6_ 
	_ZNSt8_Rb_treeIN8Optionen9HausIndexESt4pairIKS1_9ModelPlexIbEESt10_Select1stIS6_ESt4lessIS1_ESaIS6_EE11lower_boundERS3_ 
	_ZNSt8_Rb_treeIN8Optionen9HausIndexESt4pairIKS1_9ModelPlexIbEESt10_Select1stIS6_ESt4lessIS1_ESaIS6_EE13insert_uniqueERKS6_ 
	_ZNSt8_Rb_treeIN8Optionen9HausIndexESt4pairIKS1_9ModelPlexIbEESt10_Select1stIS6_ESt4lessIS1_ESaIS6_EE13insert_uniqueESt17_Rb_tree_iteratorIS6_ERKS6_ 
	_ZNSt8_Rb_treeIN8Optionen9HausIndexESt4pairIKS1_9ModelPlexIbEESt10_Select1stIS6_ESt4lessIS1_ESaIS6_EE8_M_eraseEPSt13_Rb_tree_nodeIS6_E 
	_ZNSt8_Rb_treeIN8Optionen9HausIndexESt4pairIKS1_9ModelPlexIbEESt10_Select1stIS6_ESt4lessIS1_ESaIS6_EE9_M_insertEPSt18_Rb_tree_node_baseSE_RKS6_ 
	_ZNSt8_Rb_treeISsSt4pairIKSs10cH_SchriftESt10_Select1stIS3_ESt4lessISsESaIS3_EE11lower_boundERS1_ 
	_ZNSt8_Rb_treeISsSt4pairIKSs10cH_SchriftESt10_Select1stIS3_ESt4lessISsESaIS3_EE13insert_uniqueERKS3_ 
	_ZNSt8_Rb_treeISsSt4pairIKSs10cH_SchriftESt10_Select1stIS3_ESt4lessISsESaIS3_EE13insert_uniqueESt17_Rb_tree_iteratorIS3_ERKS3_ 
	_ZNSt8_Rb_treeISsSt4pairIKSs10cH_SchriftESt10_Select1stIS3_ESt4lessISsESaIS3_EE4findERS1_ 
	_ZNSt8_Rb_treeISsSt4pairIKSs10cH_SchriftESt10_Select1stIS3_ESt4lessISsESaIS3_EE8_M_eraseEPSt13_Rb_tree_nodeIS3_E 
	_ZNSt8_Rb_treeISsSt4pairIKSs10cH_SchriftESt10_Select1stIS3_ESt4lessISsESaIS3_EE9_M_insertEPSt18_Rb_tree_node_baseSB_RKS3_ 
	_ZNSt8_Rb_treeISsSt4pairIKSs10cH_SpeziesESt10_Select1stIS3_ESt4lessISsESaIS3_EE11lower_boundERS1_ 
	_ZNSt8_Rb_treeISsSt4pairIKSs10cH_SpeziesESt10_Select1stIS3_ESt4lessISsESaIS3_EE13insert_uniqueERKS3_ 
	_ZNSt8_Rb_treeISsSt4pairIKSs10cH_SpeziesESt10_Select1stIS3_ESt4lessISsESaIS3_EE13insert_uniqueESt17_Rb_tree_iteratorIS3_ERKS3_ 
	_ZNSt8_Rb_treeISsSt4pairIKSs10cH_SpeziesESt10_Select1stIS3_ESt4lessISsESaIS3_EE4findERS1_ 
	_ZNSt8_Rb_treeISsSt4pairIKSs10cH_SpeziesESt10_Select1stIS3_ESt4lessISsESaIS3_EE8_M_eraseEPSt13_Rb_tree_nodeIS3_E 
	_ZNSt8_Rb_treeISsSt4pairIKSs10cH_SpeziesESt10_Select1stIS3_ESt4lessISsESaIS3_EE9_M_insertEPSt18_Rb_tree_node_baseSB_RKS3_ 
	_ZNSt8_Rb_treeISsSt4pairIKSs10cH_SpracheESt10_Select1stIS3_ESt4lessISsESaIS3_EE11lower_boundERS1_ 
	_ZNSt8_Rb_treeISsSt4pairIKSs10cH_SpracheESt10_Select1stIS3_ESt4lessISsESaIS3_EE13insert_uniqueERKS3_ 
	_ZNSt8_Rb_treeISsSt4pairIKSs10cH_SpracheESt10_Select1stIS3_ESt4lessISsESaIS3_EE13insert_uniqueESt17_Rb_tree_iteratorIS3_ERKS3_ 
	_ZNSt8_Rb_treeISsSt4pairIKSs10cH_SpracheESt10_Select1stIS3_ESt4lessISsESaIS3_EE4findERS1_ 
	_ZNSt8_Rb_treeISsSt4pairIKSs10cH_SpracheESt10_Select1stIS3_ESt4lessISsESaIS3_EE8_M_eraseEPSt13_Rb_tree_nodeIS3_E 
	_ZNSt8_Rb_treeISsSt4pairIKSs10cH_SpracheESt10_Select1stIS3_ESt4lessISsESaIS3_EE9_M_insertEPSt18_Rb_tree_node_baseSB_RKS3_ 
	_ZNSt8_Rb_treeISsSt4pairIKSs11cH_PrototypESt10_Select1stIS3_ESt4lessISsESaIS3_EE11lower_boundERS1_ 
	_ZNSt8_Rb_treeISsSt4pairIKSs11cH_PrototypESt10_Select1stIS3_ESt4lessISsESaIS3_EE13insert_uniqueERKS3_ 
	_ZNSt8_Rb_treeISsSt4pairIKSs11cH_PrototypESt10_Select1stIS3_ESt4lessISsESaIS3_EE13insert_uniqueESt17_Rb_tree_iteratorIS3_ERKS3_ 
	_ZNSt8_Rb_treeISsSt4pairIKSs11cH_PrototypESt10_Select1stIS3_ESt4lessISsESaIS3_EE4findERS1_ 
	_ZNSt8_Rb_treeISsSt4pairIKSs11cH_PrototypESt10_Select1stIS3_ESt4lessISsESaIS3_EE8_M_eraseEPSt13_Rb_tree_nodeIS3_E 
	_ZNSt8_Rb_treeISsSt4pairIKSs11cH_PrototypESt10_Select1stIS3_ESt4lessISsESaIS3_EE9_M_insertEPSt18_Rb_tree_node_baseSB_RKS3_ 
	_ZNSt8_Rb_treeISsSt4pairIKSs11cH_RuestungESt10_Select1stIS3_ESt4lessISsESaIS3_EE11lower_boundERS1_ 
	_ZNSt8_Rb_treeISsSt4pairIKSs11cH_RuestungESt10_Select1stIS3_ESt4lessISsESaIS3_EE13insert_uniqueERKS3_ 
	_ZNSt8_Rb_treeISsSt4pairIKSs11cH_RuestungESt10_Select1stIS3_ESt4lessISsESaIS3_EE13insert_uniqueESt17_Rb_tree_iteratorIS3_ERKS3_ 
	_ZNSt8_Rb_treeISsSt4pairIKSs11cH_RuestungESt10_Select1stIS3_ESt4lessISsESaIS3_EE4findERS1_ 
	_ZNSt8_Rb_treeISsSt4pairIKSs11cH_RuestungESt10_Select1stIS3_ESt4lessISsESaIS3_EE8_M_eraseEPSt13_Rb_tree_nodeIS3_E 
	_ZNSt8_Rb_treeISsSt4pairIKSs11cH_RuestungESt10_Select1stIS3_ESt4lessISsESaIS3_EE9_M_insertEPSt18_Rb_tree_node_baseSB_RKS3_ 
	_ZNSt8_Rb_treeISsSt4pairIKSs12cH_Prototyp2ESt10_Select1stIS3_ESt4lessISsESaIS3_EE11lower_boundERS1_ 
	_ZNSt8_Rb_treeISsSt4pairIKSs12cH_Prototyp2ESt10_Select1stIS3_ESt4lessISsESaIS3_EE13insert_uniqueERKS3_ 
	_ZNSt8_Rb_treeISsSt4pairIKSs12cH_Prototyp2ESt10_Select1stIS3_ESt4lessISsESaIS3_EE13insert_uniqueESt17_Rb_tree_iteratorIS3_ERKS3_ 
	_ZNSt8_Rb_treeISsSt4pairIKSs12cH_Prototyp2ESt10_Select1stIS3_ESt4lessISsESaIS3_EE4findERS1_ 
	_ZNSt8_Rb_treeISsSt4pairIKSs12cH_Prototyp2ESt10_Select1stIS3_ESt4lessISsESaIS3_EE8_M_eraseEPSt13_Rb_tree_nodeIS3_E 
	_ZNSt8_Rb_treeISsSt4pairIKSs12cH_Prototyp2ESt10_Select1stIS3_ESt4lessISsESaIS3_EE9_M_insertEPSt18_Rb_tree_node_baseSB_RKS3_ 
	_ZNSt8_Rb_treeISsSt4pairIKSs13cH_FertigkeitESt10_Select1stIS3_ESt4lessISsESaIS3_EE11lower_boundERS1_ 
	_ZNSt8_Rb_treeISsSt4pairIKSs13cH_FertigkeitESt10_Select1stIS3_ESt4lessISsESaIS3_EE13insert_uniqueERKS3_ 
	_ZNSt8_Rb_treeISsSt4pairIKSs13cH_FertigkeitESt10_Select1stIS3_ESt4lessISsESaIS3_EE13insert_uniqueESt17_Rb_tree_iteratorIS3_ERKS3_ 
	_ZNSt8_Rb_treeISsSt4pairIKSs13cH_FertigkeitESt10_Select1stIS3_ESt4lessISsESaIS3_EE4findERS1_ 
	_ZNSt8_Rb_treeISsSt4pairIKSs13cH_FertigkeitESt10_Select1stIS3_ESt4lessISsESaIS3_EE8_M_eraseEPSt13_Rb_tree_nodeIS3_E 
	_ZNSt8_Rb_treeISsSt4pairIKSs13cH_FertigkeitESt10_Select1stIS3_ESt4lessISsESaIS3_EE9_M_insertEPSt18_Rb_tree_node_baseSB_RKS3_ 
	_ZNSt8_Rb_treeISsSt4pairIKSs13cH_WaffeGrundESt10_Select1stIS3_ESt4lessISsESaIS3_EE11lower_boundERS1_ 
	_ZNSt8_Rb_treeISsSt4pairIKSs13cH_WaffeGrundESt10_Select1stIS3_ESt4lessISsESaIS3_EE13insert_uniqueERKS3_ 
	_ZNSt8_Rb_treeISsSt4pairIKSs13cH_WaffeGrundESt10_Select1stIS3_ESt4lessISsESaIS3_EE13insert_uniqueESt17_Rb_tree_iteratorIS3_ERKS3_ 
	_ZNSt8_Rb_treeISsSt4pairIKSs13cH_WaffeGrundESt10_Select1stIS3_ESt4lessISsESaIS3_EE4findERS1_ 
	_ZNSt8_Rb_treeISsSt4pairIKSs13cH_WaffeGrundESt10_Select1stIS3_ESt4lessISsESaIS3_EE8_M_eraseEPSt13_Rb_tree_nodeIS3_E 
	_ZNSt8_Rb_treeISsSt4pairIKSs13cH_WaffeGrundESt10_Select1stIS3_ESt4lessISsESaIS3_EE9_M_insertEPSt18_Rb_tree_node_baseSB_RKS3_ 
	_ZNSt8_Rb_treeISsSt4pairIKSs15cH_PreiseNewModESt10_Select1stIS3_ESt4lessISsESaIS3_EE11lower_boundERS1_ 
	_ZNSt8_Rb_treeISsSt4pairIKSs15cH_PreiseNewModESt10_Select1stIS3_ESt4lessISsESaIS3_EE13insert_uniqueERKS3_ 
	_ZNSt8_Rb_treeISsSt4pairIKSs15cH_PreiseNewModESt10_Select1stIS3_ESt4lessISsESaIS3_EE13insert_uniqueESt17_Rb_tree_iteratorIS3_ERKS3_ 
	_ZNSt8_Rb_treeISsSt4pairIKSs15cH_PreiseNewModESt10_Select1stIS3_ESt4lessISsESaIS3_EE4findERS1_ 
	_ZNSt8_Rb_treeISsSt4pairIKSs15cH_PreiseNewModESt10_Select1stIS3_ESt4lessISsESaIS3_EE8_M_eraseEPSt13_Rb_tree_nodeIS3_E 
	_ZNSt8_Rb_treeISsSt4pairIKSs15cH_PreiseNewModESt10_Select1stIS3_ESt4lessISsESaIS3_EE9_M_insertEPSt18_Rb_tree_node_baseSB_RKS3_ 
	_ZNSt8_Rb_treeISsSt4pairIKSs16cH_SpezialgebietESt10_Select1stIS3_ESt4lessISsESaIS3_EE11lower_boundERS1_ 
	_ZNSt8_Rb_treeISsSt4pairIKSs16cH_SpezialgebietESt10_Select1stIS3_ESt4lessISsESaIS3_EE13insert_uniqueERKS3_ 
	_ZNSt8_Rb_treeISsSt4pairIKSs16cH_SpezialgebietESt10_Select1stIS3_ESt4lessISsESaIS3_EE13insert_uniqueESt17_Rb_tree_iteratorIS3_ERKS3_ 
	_ZNSt8_Rb_treeISsSt4pairIKSs16cH_SpezialgebietESt10_Select1stIS3_ESt4lessISsESaIS3_EE4findERS1_ 
	_ZNSt8_Rb_treeISsSt4pairIKSs16cH_SpezialgebietESt10_Select1stIS3_ESt4lessISsESaIS3_EE8_M_eraseEPSt13_Rb_tree_nodeIS3_E 
	_ZNSt8_Rb_treeISsSt4pairIKSs16cH_SpezialgebietESt10_Select1stIS3_ESt4lessISsESaIS3_EE9_M_insertEPSt18_Rb_tree_node_baseSB_RKS3_ 
	_ZNSt8_Rb_treeISsSt4pairIKSs24cH_Fertigkeit_angeboreneESt10_Select1stIS3_ESt4lessISsESaIS3_EE11lower_boundERS1_ 
	_ZNSt8_Rb_treeISsSt4pairIKSs24cH_Fertigkeit_angeboreneESt10_Select1stIS3_ESt4lessISsESaIS3_EE13insert_uniqueERKS3_ 
	_ZNSt8_Rb_treeISsSt4pairIKSs24cH_Fertigkeit_angeboreneESt10_Select1stIS3_ESt4lessISsESaIS3_EE13insert_uniqueESt17_Rb_tree_iteratorIS3_ERKS3_ 
	_ZNSt8_Rb_treeISsSt4pairIKSs24cH_Fertigkeit_angeboreneESt10_Select1stIS3_ESt4lessISsESaIS3_EE4findERS1_ 
	_ZNSt8_Rb_treeISsSt4pairIKSs24cH_Fertigkeit_angeboreneESt10_Select1stIS3_ESt4lessISsESaIS3_EE8_M_eraseEPSt13_Rb_tree_nodeIS3_E 
	_ZNSt8_Rb_treeISsSt4pairIKSs24cH_Fertigkeit_angeboreneESt10_Select1stIS3_ESt4lessISsESaIS3_EE9_M_insertEPSt18_Rb_tree_node_baseSB_RKS3_ 
	_ZNSt8_Rb_treeISsSt4pairIKSs7cH_KiDoESt10_Select1stIS3_ESt4lessISsESaIS3_EE11lower_boundERS1_ 
	_ZNSt8_Rb_treeISsSt4pairIKSs7cH_KiDoESt10_Select1stIS3_ESt4lessISsESaIS3_EE13insert_uniqueERKS3_ 
	_ZNSt8_Rb_treeISsSt4pairIKSs7cH_KiDoESt10_Select1stIS3_ESt4lessISsESaIS3_EE13insert_uniqueESt17_Rb_tree_iteratorIS3_ERKS3_ 
	_ZNSt8_Rb_treeISsSt4pairIKSs7cH_KiDoESt10_Select1stIS3_ESt4lessISsESaIS3_EE4findERS1_ 
	_ZNSt8_Rb_treeISsSt4pairIKSs7cH_KiDoESt10_Select1stIS3_ESt4lessISsESaIS3_EE8_M_eraseEPSt13_Rb_tree_nodeIS3_E 
	_ZNSt8_Rb_treeISsSt4pairIKSs7cH_KiDoESt10_Select1stIS3_ESt4lessISsESaIS3_EE9_M_insertEPSt18_Rb_tree_node_baseSB_RKS3_ 
	_ZNSt8_Rb_treeISsSt4pairIKSs7cH_LandESt10_Select1stIS3_ESt4lessISsESaIS3_EE11lower_boundERS1_ 
	_ZNSt8_Rb_treeISsSt4pairIKSs7cH_LandESt10_Select1stIS3_ESt4lessISsESaIS3_EE13insert_uniqueERKS3_ 
	_ZNSt8_Rb_treeISsSt4pairIKSs7cH_LandESt10_Select1stIS3_ESt4lessISsESaIS3_EE13insert_uniqueESt17_Rb_tree_iteratorIS3_ERKS3_ 
	_ZNSt8_Rb_treeISsSt4pairIKSs7cH_LandESt10_Select1stIS3_ESt4lessISsESaIS3_EE4findERS1_ 
	_ZNSt8_Rb_treeISsSt4pairIKSs7cH_LandESt10_Select1stIS3_ESt4lessISsESaIS3_EE8_M_eraseEPSt13_Rb_tree_nodeIS3_E 
	_ZNSt8_Rb_treeISsSt4pairIKSs7cH_LandESt10_Select1stIS3_ESt4lessISsESaIS3_EE9_M_insertEPSt18_Rb_tree_node_baseSB_RKS3_ 
	_ZNSt8_Rb_treeISsSt4pairIKSs8cH_BerufESt10_Select1stIS3_ESt4lessISsESaIS3_EE11lower_boundERS1_ 
	_ZNSt8_Rb_treeISsSt4pairIKSs8cH_BerufESt10_Select1stIS3_ESt4lessISsESaIS3_EE13insert_uniqueERKS3_ 
	_ZNSt8_Rb_treeISsSt4pairIKSs8cH_BerufESt10_Select1stIS3_ESt4lessISsESaIS3_EE13insert_uniqueESt17_Rb_tree_iteratorIS3_ERKS3_ 
	_ZNSt8_Rb_treeISsSt4pairIKSs8cH_BerufESt10_Select1stIS3_ESt4lessISsESaIS3_EE4findERS1_ 
	_ZNSt8_Rb_treeISsSt4pairIKSs8cH_BerufESt10_Select1stIS3_ESt4lessISsESaIS3_EE8_M_eraseEPSt13_Rb_tree_nodeIS3_E 
	_ZNSt8_Rb_treeISsSt4pairIKSs8cH_BerufESt10_Select1stIS3_ESt4lessISsESaIS3_EE9_M_insertEPSt18_Rb_tree_node_baseSB_RKS3_ 
	_ZNSt8_Rb_treeISsSt4pairIKSs8cH_TypenESt10_Select1stIS3_ESt4lessISsESaIS3_EE11lower_boundERS1_ 
	_ZNSt8_Rb_treeISsSt4pairIKSs8cH_TypenESt10_Select1stIS3_ESt4lessISsESaIS3_EE13insert_uniqueERKS3_ 
	_ZNSt8_Rb_treeISsSt4pairIKSs8cH_TypenESt10_Select1stIS3_ESt4lessISsESaIS3_EE13insert_uniqueESt17_Rb_tree_iteratorIS3_ERKS3_ 
	_ZNSt8_Rb_treeISsSt4pairIKSs8cH_TypenESt10_Select1stIS3_ESt4lessISsESaIS3_EE4findERS1_ 
	_ZNSt8_Rb_treeISsSt4pairIKSs8cH_TypenESt10_Select1stIS3_ESt4lessISsESaIS3_EE8_M_eraseEPSt13_Rb_tree_nodeIS3_E 
	_ZNSt8_Rb_treeISsSt4pairIKSs8cH_TypenESt10_Select1stIS3_ESt4lessISsESaIS3_EE9_M_insertEPSt18_Rb_tree_node_baseSB_RKS3_ 
	_ZNSt8_Rb_treeISsSt4pairIKSs8cH_WaffeESt10_Select1stIS3_ESt4lessISsESaIS3_EE11lower_boundERS1_ 
	_ZNSt8_Rb_treeISsSt4pairIKSs8cH_WaffeESt10_Select1stIS3_ESt4lessISsESaIS3_EE13insert_uniqueERKS3_ 
	_ZNSt8_Rb_treeISsSt4pairIKSs8cH_WaffeESt10_Select1stIS3_ESt4lessISsESaIS3_EE13insert_uniqueESt17_Rb_tree_iteratorIS3_ERKS3_ 
	_ZNSt8_Rb_treeISsSt4pairIKSs8cH_WaffeESt10_Select1stIS3_ESt4lessISsESaIS3_EE4findERS1_ 
	_ZNSt8_Rb_treeISsSt4pairIKSs8cH_WaffeESt10_Select1stIS3_ESt4lessISsESaIS3_EE8_M_eraseEPSt13_Rb_tree_nodeIS3_E 
	_ZNSt8_Rb_treeISsSt4pairIKSs8cH_WaffeESt10_Select1stIS3_ESt4lessISsESaIS3_EE9_M_insertEPSt18_Rb_tree_node_baseSB_RKS3_ 
	_ZNSt8_Rb_treeISsSt4pairIKSs9cH_PreiseESt10_Select1stIS3_ESt4lessISsESaIS3_EE11lower_boundERS1_ 
	_ZNSt8_Rb_treeISsSt4pairIKSs9cH_PreiseESt10_Select1stIS3_ESt4lessISsESaIS3_EE13insert_uniqueERKS3_ 
	_ZNSt8_Rb_treeISsSt4pairIKSs9cH_PreiseESt10_Select1stIS3_ESt4lessISsESaIS3_EE13insert_uniqueESt17_Rb_tree_iteratorIS3_ERKS3_ 
	_ZNSt8_Rb_treeISsSt4pairIKSs9cH_PreiseESt10_Select1stIS3_ESt4lessISsESaIS3_EE4findERS1_ 
	_ZNSt8_Rb_treeISsSt4pairIKSs9cH_PreiseESt10_Select1stIS3_ESt4lessISsESaIS3_EE8_M_eraseEPSt13_Rb_tree_nodeIS3_E 
	_ZNSt8_Rb_treeISsSt4pairIKSs9cH_PreiseESt10_Select1stIS3_ESt4lessISsESaIS3_EE9_M_insertEPSt18_Rb_tree_node_baseSB_RKS3_ 
	_ZNSt8_Rb_treeISsSt4pairIKSs9cH_RegionESt10_Select1stIS3_ESt4lessISsESaIS3_EE11lower_boundERS1_ 
	_ZNSt8_Rb_treeISsSt4pairIKSs9cH_RegionESt10_Select1stIS3_ESt4lessISsESaIS3_EE13insert_uniqueERKS3_ 
	_ZNSt8_Rb_treeISsSt4pairIKSs9cH_RegionESt10_Select1stIS3_ESt4lessISsESaIS3_EE13insert_uniqueESt17_Rb_tree_iteratorIS3_ERKS3_ 
	_ZNSt8_Rb_treeISsSt4pairIKSs9cH_RegionESt10_Select1stIS3_ESt4lessISsESaIS3_EE4findERS1_ 
	_ZNSt8_Rb_treeISsSt4pairIKSs9cH_RegionESt10_Select1stIS3_ESt4lessISsESaIS3_EE8_M_eraseEPSt13_Rb_tree_nodeIS3_E 
	_ZNSt8_Rb_treeISsSt4pairIKSs9cH_RegionESt10_Select1stIS3_ESt4lessISsESaIS3_EE9_M_insertEPSt18_Rb_tree_node_baseSB_RKS3_ 
	_ZNSt8_Rb_treeISsSt4pairIKSs9cH_ZauberESt10_Select1stIS3_ESt4lessISsESaIS3_EE11lower_boundERS1_ 
	_ZNSt8_Rb_treeISsSt4pairIKSs9cH_ZauberESt10_Select1stIS3_ESt4lessISsESaIS3_EE13insert_uniqueERKS3_ 
	_ZNSt8_Rb_treeISsSt4pairIKSs9cH_ZauberESt10_Select1stIS3_ESt4lessISsESaIS3_EE13insert_uniqueESt17_Rb_tree_iteratorIS3_ERKS3_ 
	_ZNSt8_Rb_treeISsSt4pairIKSs9cH_ZauberESt10_Select1stIS3_ESt4lessISsESaIS3_EE4findERS1_ 
	_ZNSt8_Rb_treeISsSt4pairIKSs9cH_ZauberESt10_Select1stIS3_ESt4lessISsESaIS3_EE8_M_eraseEPSt13_Rb_tree_nodeIS3_E 
	_ZNSt8_Rb_treeISsSt4pairIKSs9cH_ZauberESt10_Select1stIS3_ESt4lessISsESaIS3_EE9_M_insertEPSt18_Rb_tree_node_baseSB_RKS3_ 
	_ZNSt8_Rb_treeISsSt4pairIKSsbESt10_Select1stIS2_ESt4lessISsESaIS2_EE11lower_boundERS1_ 
	_ZNSt8_Rb_treeISsSt4pairIKSsbESt10_Select1stIS2_ESt4lessISsESaIS2_EE13insert_uniqueERKS2_ 
	_ZNSt8_Rb_treeISsSt4pairIKSsbESt10_Select1stIS2_ESt4lessISsESaIS2_EE13insert_uniqueESt17_Rb_tree_iteratorIS2_ERKS2_ 
	_ZNSt8_Rb_treeISsSt4pairIKSsbESt10_Select1stIS2_ESt4lessISsESaIS2_EE8_M_eraseEPSt13_Rb_tree_nodeIS2_E 
	_ZNSt8_Rb_treeISsSt4pairIKSsbESt10_Select1stIS2_ESt4lessISsESaIS2_EE9_M_insertEPSt18_Rb_tree_node_baseSA_RKS2_ 
	_ZNSt8_Rb_treeISsSt4pairIKSsdESt10_Select1stIS2_ESt4lessISsESaIS2_EE11lower_boundERS1_ 
	_ZNSt8_Rb_treeISsSt4pairIKSsdESt10_Select1stIS2_ESt4lessISsESaIS2_EE13insert_uniqueERKS2_ 
	_ZNSt8_Rb_treeISsSt4pairIKSsdESt10_Select1stIS2_ESt4lessISsESaIS2_EE13insert_uniqueESt17_Rb_tree_iteratorIS2_ERKS2_ 
	_ZNSt8_Rb_treeISsSt4pairIKSsdESt10_Select1stIS2_ESt4lessISsESaIS2_EE8_M_eraseEPSt13_Rb_tree_nodeIS2_E 
	_ZNSt8_Rb_treeISsSt4pairIKSsdESt10_Select1stIS2_ESt4lessISsESaIS2_EE9_M_insertEPSt18_Rb_tree_node_baseSA_RKS2_ 
	_ZNSt8_Rb_treeISsSt4pairIKSsiESt10_Select1stIS2_ESt4lessISsESaIS2_EE11lower_boundERS1_ 
	_ZNSt8_Rb_treeISsSt4pairIKSsiESt10_Select1stIS2_ESt4lessISsESaIS2_EE13insert_uniqueERKS2_ 
	_ZNSt8_Rb_treeISsSt4pairIKSsiESt10_Select1stIS2_ESt4lessISsESaIS2_EE13insert_uniqueESt17_Rb_tree_iteratorIS2_ERKS2_ 
	_ZNSt8_Rb_treeISsSt4pairIKSsiESt10_Select1stIS2_ESt4lessISsESaIS2_EE8_M_eraseEPSt13_Rb_tree_nodeIS2_E 
	_ZNSt8_Rb_treeISsSt4pairIKSsiESt10_Select1stIS2_ESt4lessISsESaIS2_EE9_M_insertEPSt18_Rb_tree_node_baseSA_RKS2_ 
	_ZNSt8_Rb_treeISsSt4pairIKSsN19MidgardBasicElement4EP_tEESt10_Select1stIS4_ESt4lessISsESaIS4_EE11lower_boundERS1_ 
	_ZNSt8_Rb_treeISsSt4pairIKSsN19MidgardBasicElement4EP_tEESt10_Select1stIS4_ESt4lessISsESaIS4_EE13insert_uniqueERKS4_ 
	_ZNSt8_Rb_treeISsSt4pairIKSsN19MidgardBasicElement4EP_tEESt10_Select1stIS4_ESt4lessISsESaIS4_EE13insert_uniqueESt17_Rb_tree_iteratorIS4_ERKS4_ 
	_ZNSt8_Rb_treeISsSt4pairIKSsN19MidgardBasicElement4EP_tEESt10_Select1stIS4_ESt4lessISsESaIS4_EE4findERS1_ 
	_ZNSt8_Rb_treeISsSt4pairIKSsN19MidgardBasicElement4EP_tEESt10_Select1stIS4_ESt4lessISsESaIS4_EE8_M_eraseEPSt13_Rb_tree_nodeIS4_E 
	_ZNSt8_Rb_treeISsSt4pairIKSsN19MidgardBasicElement4EP_tEESt10_Select1stIS4_ESt4lessISsESaIS4_EE9_M_insertEPSt18_Rb_tree_node_baseSC_RKS4_ 
	_ZNSt8_Rb_treeISsSt4pairIKSsSsESt10_Select1stIS2_ESt4lessISsESaIS2_EE11lower_boundERS1_ 
	_ZNSt8_Rb_treeISsSt4pairIKSsSsESt10_Select1stIS2_ESt4lessISsESaIS2_EE13insert_uniqueERKS2_ 
	_ZNSt8_Rb_treeISsSt4pairIKSsSsESt10_Select1stIS2_ESt4lessISsESaIS2_EE13insert_uniqueESt17_Rb_tree_iteratorIS2_ERKS2_ 
	_ZNSt8_Rb_treeISsSt4pairIKSsSsESt10_Select1stIS2_ESt4lessISsESaIS2_EE4findERS1_ 
	_ZNSt8_Rb_treeISsSt4pairIKSsSsESt10_Select1stIS2_ESt4lessISsESaIS2_EE7_M_copyEPKSt13_Rb_tree_nodeIS2_EPSA_ 
	_ZNSt8_Rb_treeISsSt4pairIKSsSsESt10_Select1stIS2_ESt4lessISsESaIS2_EE8_M_eraseEPSt13_Rb_tree_nodeIS2_E 
	_ZNSt8_Rb_treeISsSt4pairIKSsSsESt10_Select1stIS2_ESt4lessISsESaIS2_EE9_M_insertEPSt18_Rb_tree_node_baseSA_RKS2_ 
	_ZNSt8_Rb_treeISsSt4pairIKSsSsESt10_Select1stIS2_ESt4lessISsESaIS2_EEaSERKS8_ 
	_ZNSt8_Rb_treeISsSt4pairIKSsSt3mapIiiSt4lessIiESaIS0_IKiiEEEESt10_Select1stIS9_ES3_ISsESaIS9_EE11lower_boundERS1_ 
	_ZNSt8_Rb_treeISsSt4pairIKSsSt3mapIiiSt4lessIiESaIS0_IKiiEEEESt10_Select1stIS9_ES3_ISsESaIS9_EE13insert_uniqueERKS9_ 
	_ZNSt8_Rb_treeISsSt4pairIKSsSt3mapIiiSt4lessIiESaIS0_IKiiEEEESt10_Select1stIS9_ES3_ISsESaIS9_EE13insert_uniqueESt17_Rb_tree_iteratorIS9_ERKS9_ 
	_ZNSt8_Rb_treeISsSt4pairIKSsSt3mapIiiSt4lessIiESaIS0_IKiiEEEESt10_Select1stIS9_ES3_ISsESaIS9_EE4findERS1_ 
	_ZNSt8_Rb_treeISsSt4pairIKSsSt3mapIiiSt4lessIiESaIS0_IKiiEEEESt10_Select1stIS9_ES3_ISsESaIS9_EE8_M_eraseEPSt13_Rb_tree_nodeIS9_E 
	_ZNSt8_Rb_treeISsSt4pairIKSsSt3mapIiiSt4lessIiESaIS0_IKiiEEEESt10_Select1stIS9_ES3_ISsESaIS9_EE9_M_insertEPSt18_Rb_tree_node_baseSG_RKS9_ 
	_ZNSt8_Rb_treeISsSt4pairIKSsSt4listI29H_MidgardBasicElement_mutableSaIS3_EEESt10_Select1stIS6_ESt4lessISsESaIS6_EE11lower_boundERS1_ 
	_ZNSt8_Rb_treeISsSt4pairIKSsSt4listI29H_MidgardBasicElement_mutableSaIS3_EEESt10_Select1stIS6_ESt4lessISsESaIS6_EE13insert_uniqueERKS6_ 
	_ZNSt8_Rb_treeISsSt4pairIKSsSt4listI29H_MidgardBasicElement_mutableSaIS3_EEESt10_Select1stIS6_ESt4lessISsESaIS6_EE13insert_uniqueESt17_Rb_tree_iteratorIS6_ERKS6_ 
	_ZNSt8_Rb_treeISsSt4pairIKSsSt4listI29H_MidgardBasicElement_mutableSaIS3_EEESt10_Select1stIS6_ESt4lessISsESaIS6_EE8_M_eraseEPSt13_Rb_tree_nodeIS6_E 
	_ZNSt8_Rb_treeISsSt4pairIKSsSt4listI29H_MidgardBasicElement_mutableSaIS3_EEESt10_Select1stIS6_ESt4lessISsESaIS6_EE9_M_insertEPSt18_Rb_tree_node_baseSE_RKS6_ 
	_ZNSt8_Rb_treeISsSt4pairIKSsSt6vectorIN12PreiseNewMod11st_preismodESaIS4_EEESt10_Select1stIS7_ESt4lessISsESaIS7_EE11lower_boundERS1_ 
	_ZNSt8_Rb_treeISsSt4pairIKSsSt6vectorIN12PreiseNewMod11st_preismodESaIS4_EEESt10_Select1stIS7_ESt4lessISsESaIS7_EE13insert_uniqueERKS7_ 
	_ZNSt8_Rb_treeISsSt4pairIKSsSt6vectorIN12PreiseNewMod11st_preismodESaIS4_EEESt10_Select1stIS7_ESt4lessISsESaIS7_EE13insert_uniqueESt17_Rb_tree_iteratorIS7_ERKS7_ 
	_ZNSt8_Rb_treeISsSt4pairIKSsSt6vectorIN12PreiseNewMod11st_preismodESaIS4_EEESt10_Select1stIS7_ESt4lessISsESaIS7_EE8_M_eraseEPSt13_Rb_tree_nodeIS7_E 
	_ZNSt8_Rb_treeISsSt4pairIKSsSt6vectorIN12PreiseNewMod11st_preismodESaIS4_EEESt10_Select1stIS7_ESt4lessISsESaIS7_EE9_M_insertEPSt18_Rb_tree_node_baseSF_RKS7_ 
	_ZoRRN19MidgardBasicElement4EP_tES0_ 
	_ZppRN6Zufall6eFAUWZE 
	_ZSt26__uninitialized_fill_n_auxIN9__gnu_cxx17__normal_iteratorIP8cH_TypenSt6vectorIS2_SaIS2_EEEEjS2_ET_S8_T0_RKT1_12__false_type 
	_ZSt26__uninitialized_fill_n_auxIN9__gnu_cxx17__normal_iteratorIPSsSt6vectorISsSaISsEEEEjSsET_S7_T0_RKT1_12__false_type 
	_ZSt26__uninitialized_fill_n_auxIP8cH_TypenjS0_ET_S2_T0_RKT1_12__false_type 
	_ZSt26__uninitialized_fill_n_auxIPSsjSsET_S1_T0_RKT1_12__false_type 
	_ZSt4fillIN9__gnu_cxx17__normal_iteratorIP8cH_TypenSt6vectorIS2_SaIS2_EEEES2_EvT_S8_RKT0_ 
	_ZSt4fillIN9__gnu_cxx17__normal_iteratorIPSsSt6vectorISsSaISsEEEESsEvT_S7_RKT0_ 
	_ZSt4findIN9__gnu_cxx17__normal_iteratorIP29H_MidgardBasicElement_mutableSt6vectorIS2_SaIS2_EEEES2_ET_S8_S8_RKT0_St26random_access_iterator_tag 
	_ZSt4findIN9__gnu_cxx17__normal_iteratorIPKSsSt6vectorISsSaISsEEEESsET_S8_S8_RKT0_St26random_access_iterator_tag 
	_ZSt4findIN9__gnu_cxx17__normal_iteratorIPN9Prototyp214st_protolistenESt6vectorIS3_SaIS3_EEEESsET_S9_S9_RKT0_St26random_access_iterator_tag 
	_ZSt4findIN9__gnu_cxx17__normal_iteratorIPSsSt6vectorISsSaISsEEEESsET_S7_S7_RKT0_St26random_access_iterator_tag 
	_ZStplIcSt11char_traitsIcESaIcEESbIT_T0_T1_EPKS3_RKS6_ 
	_ZStplIcSt11char_traitsIcESaIcEESbIT_T0_T1_ERKS6_PKS3_ 
	_ZStplIcSt11char_traitsIcESaIcEESbIT_T0_T1_ERKS6_S8_ 
	_ZTC13orecodestream0_So  DATA
	_ZTI10Fertigkeit  DATA
	_ZTI10WaffeGrund  DATA
	_ZTI10Zauberwerk  DATA
	_ZTI11WaffeBesitz  DATA
	_ZTI12PreiseNewMod  DATA
	_ZTI13HandleContent  DATA
	_ZTI13orecodestream  DATA
	_ZTI13Spezialgebiet  DATA
	_ZTI14ResistenzUndCo  DATA
	_ZTI19MidgardBasicElement  DATA
	_ZTI21Fertigkeit_angeborene  DATA
	_ZTI27MidgardBasicElement_mutable  DATA
	_ZTI4KiDo  DATA
	_ZTI4Land  DATA
	_ZTI5Beruf  DATA
	_ZTI5Sinne  DATA
	_ZTI5Typen  DATA
	_ZTI5Waffe  DATA
	_ZTI6Preise  DATA
	_ZTI6Region  DATA
	_ZTI6Zauber  DATA
	_ZTI7Schrift  DATA
	_ZTI7Spezies  DATA
	_ZTI7Sprache  DATA
	_ZTI8NotFound  DATA
	_ZTI8Prototyp  DATA
	_ZTI8Ruestung  DATA
	_ZTI9Prototyp2  DATA
	_ZTI9recodebuf  DATA
	_ZTISt11logic_error  DATA
	_ZTISt12out_of_range  DATA
	_ZTISt13runtime_error  DATA
	_ZTISt9exception  DATA
	_ZTS10Fertigkeit  DATA
	_ZTS10WaffeGrund  DATA
	_ZTS10Zauberwerk  DATA
	_ZTS11WaffeBesitz  DATA
	_ZTS12PreiseNewMod  DATA
	_ZTS13HandleContent  DATA
	_ZTS13orecodestream  DATA
	_ZTS13Spezialgebiet  DATA
	_ZTS14ResistenzUndCo  DATA
	_ZTS19MidgardBasicElement  DATA
	_ZTS21Fertigkeit_angeborene  DATA
	_ZTS27MidgardBasicElement_mutable  DATA
	_ZTS4KiDo  DATA
	_ZTS4Land  DATA
	_ZTS5Beruf  DATA
	_ZTS5Sinne  DATA
	_ZTS5Typen  DATA
	_ZTS5Waffe  DATA
	_ZTS6Preise  DATA
	_ZTS6Region  DATA
	_ZTS6Zauber  DATA
	_ZTS7Schrift  DATA
	_ZTS7Spezies  DATA
	_ZTS7Sprache  DATA
	_ZTS8NotFound  DATA
	_ZTS8Prototyp  DATA
	_ZTS8Ruestung  DATA
	_ZTS9Prototyp2  DATA
	_ZTS9recodebuf  DATA
	_ZTSSt11logic_error  DATA
	_ZTSSt12out_of_range  DATA
	_ZTSSt13runtime_error  DATA
	_ZTSSt9exception  DATA
	_ZTT13orecodestream  DATA
	_ZTv0_n12_N13orecodestreamD0Ev 
	_ZTv0_n12_N13orecodestreamD1Ev 
	_ZTV10Fertigkeit  DATA
	_ZTV10WaffeGrund  DATA
	_ZTV10Zauberwerk  DATA
	_ZTV11WaffeBesitz  DATA
	_ZTV12PreiseNewMod  DATA
	_ZTV13orecodestream  DATA
	_ZTV13Spezialgebiet  DATA
	_ZTV14ResistenzUndCo  DATA
	_ZTV19MidgardBasicElement  DATA
	_ZTV21Fertigkeit_angeborene  DATA
	_ZTV27MidgardBasicElement_mutable  DATA
	_ZTV4KiDo  DATA
	_ZTV4Land  DATA
	_ZTV5Beruf  DATA
	_ZTV5Sinne  DATA
	_ZTV5Typen  DATA
	_ZTV5Waffe  DATA
	_ZTV6Preise  DATA
	_ZTV6Region  DATA
	_ZTV6Zauber  DATA
	_ZTV7Schrift  DATA
	_ZTV7Spezies  DATA
	_ZTV7Sprache  DATA
	_ZTV8NotFound  DATA
	_ZTV8Prototyp  DATA
	_ZTV8Ruestung  DATA
	_ZTV9Prototyp2  DATA
	_ZTV9recodebuf  DATA
	_ZTVSt12out_of_range  DATA
	_ZN10Grundwerte12setRuestung1ERKSsb
	_ZN10Grundwerte12setRuestung2ERKSsb
